; ModuleID = 'llvm-link'
source_filename = "llvm-link"
target datalayout = "e-m:e-p270:32:32-p271:32:32-p272:64:64-i64:64-i128:128-f80:128-n8:16:32:64-S128"
target triple = "x86_64-unknown-linux-gnu"

%"core::fmt::rt::Argument<'_>" = type { %"core::fmt::rt::ArgumentType<'_>" }
%"core::fmt::rt::ArgumentType<'_>" = type { [1 x i64], ptr }

@alloc_83ea17bf0c4f4a5a5a13d3ae7955acd0 = private unnamed_addr constant <{ [4 x i8] }> zeroinitializer, align 4
@alloc_e66071d94605838e7dc5950cdad7bb3a = private unnamed_addr constant <{ [4 x i8] }> <{ [4 x i8] c"\16\00\00\00" }>, align 4
@alloc_1b3804a15076ee773e353053d7e3ff90 = private unnamed_addr constant <{ [72 x i8] }> <{ [72 x i8] c"/home/zjac281/Desktop/RustMC/rust/library/std/src/sys/pal/unix/thread.rs" }>, align 1
@alloc_b6ccc1f9f1537e7e6d3c84e4ab130d69 = private unnamed_addr constant <{ ptr, [16 x i8] }> <{ ptr @alloc_1b3804a15076ee773e353053d7e3ff90, [16 x i8] c"H\00\00\00\00\00\00\00\\\00\00\00\09\00\00\00" }>, align 8
@alloc_1344f57768feaf6780907812b147bc1c = private unnamed_addr constant <{ ptr, [16 x i8] }> <{ ptr @alloc_1b3804a15076ee773e353053d7e3ff90, [16 x i8] c"H\00\00\00\00\00\00\00S\00\00\00\15\00\00\00" }>, align 8
@alloc_72ca3e93846fc2f65b7d23a91f1c092a = private unnamed_addr constant <{ ptr, [16 x i8] }> <{ ptr @alloc_1b3804a15076ee773e353053d7e3ff90, [16 x i8] c"H\00\00\00\00\00\00\00K\00\00\00\15\00\00\00" }>, align 8
@alloc_2f8448eff69a153d9f913e09c261851a = private unnamed_addr constant <{ ptr, [16 x i8] }> <{ ptr @alloc_1b3804a15076ee773e353053d7e3ff90, [16 x i8] c"H\00\00\00\00\00\00\008\00\00\00\09\00\00\00" }>, align 8
@alloc_e3605bf48dd8479a638909176cc37fce = private unnamed_addr constant <{ [22 x i8] }> <{ [22 x i8] c"failed to spawn thread" }>, align 1
@alloc_76644177d271c095beb0f90b4a8c3951 = private unnamed_addr constant <{ [63 x i8] }> <{ [63 x i8] c"/home/zjac281/Desktop/RustMC/rust/library/std/src/thread/mod.rs" }>, align 1
@alloc_5d9d3b2b9a47864ed032a0e2d3927776 = private unnamed_addr constant <{ ptr, [16 x i8] }> <{ ptr @alloc_76644177d271c095beb0f90b4a8c3951, [16 x i8] c"?\00\00\00\00\00\00\00\BA\02\00\00\1D\00\00\00" }>, align 8
@alloc_2ee7ba9733a263ad3a32ba87b5ec3eae = private unnamed_addr constant <{ [70 x i8] }> <{ [70 x i8] c"cannot access a Thread Local Storage value during or after destruction" }>, align 1
@alloc_ed5dd9992c4fc744bb9327b210240294 = private unnamed_addr constant <{ [61 x i8] }> <{ [61 x i8] c"/home/zjac281/Desktop/RustMC/rust/library/std/src/io/stdio.rs" }>, align 1
@alloc_03ba00628e0b55adc6c10b1b665b8e52 = private unnamed_addr constant <{ ptr, [16 x i8] }> <{ ptr @alloc_ed5dd9992c4fc744bb9327b210240294, [16 x i8] c"=\00\00\00\00\00\00\00/\04\00\00\22\00\00\00" }>, align 8
@vtable.0 = private constant <{ ptr, [16 x i8], ptr }> <{ ptr @"_ZN4core3ptr151drop_in_place$LT$std..thread..Builder..spawn_unchecked_$LT$racy_test..main..$u7b$$u7b$closure$u7d$$u7d$$C$$LP$$RP$$GT$..$u7b$$u7b$closure$u7d$$u7d$$GT$17h1fbdeda31ad831a0E", [16 x i8] c"\10\00\00\00\00\00\00\00\08\00\00\00\00\00\00\00", ptr @"_ZN4core3ops8function6FnOnce40call_once$u7b$$u7b$vtable.shim$u7d$$u7d$17hdb48fe4b86fe7f15E" }>, align 8, !dbg !0
@alloc_716972c7be8563497d93eab2a43fa5a6 = private unnamed_addr constant <{ ptr, [16 x i8] }> <{ ptr @alloc_76644177d271c095beb0f90b4a8c3951, [16 x i8] c"?\00\00\00\00\00\00\00\F3\04\00\00C\00\00\00" }>, align 8
@alloc_acdd858a4264200251c2abab76f90714 = private unnamed_addr constant <{ [55 x i8] }> <{ [55 x i8] c"failed to generate unique thread ID: bitspace exhausted" }>, align 1
@alloc_adc1a5739c6e99d0e8df839b124d9459 = private unnamed_addr constant <{ ptr, [8 x i8] }> <{ ptr @alloc_acdd858a4264200251c2abab76f90714, [8 x i8] c"7\00\00\00\00\00\00\00" }>, align 8
@alloc_2c71a29473aff77c92ade7c1b012bb96 = private unnamed_addr constant <{ ptr, [16 x i8] }> <{ ptr @alloc_76644177d271c095beb0f90b4a8c3951, [16 x i8] c"?\00\00\00\00\00\00\00\E2\04\00\00\0D\00\00\00" }>, align 8
@alloc_fad0cd83b7d1858a846a172eb260e593 = private unnamed_addr constant <{ [42 x i8] }> <{ [42 x i8] c"is_aligned_to: align is not a power-of-two" }>, align 1
@alloc_041983ee8170efdaaf95ba67fd072d26 = private unnamed_addr constant <{ ptr, [8 x i8] }> <{ ptr @alloc_fad0cd83b7d1858a846a172eb260e593, [8 x i8] c"*\00\00\00\00\00\00\00" }>, align 8
@alloc_424341b75ece3fa20496f1c69b9fb0ac = private unnamed_addr constant <{ [111 x i8] }> <{ [111 x i8] c"unsafe precondition(s) violated: ptr::write_bytes requires that the destination pointer is aligned and non-null" }>, align 1
@alloc_50dd3b7d4aade49dcbc3721992361615 = private unnamed_addr constant <{ [67 x i8] }> <{ [67 x i8] c"/home/zjac281/Desktop/RustMC/rust/library/core/src/ptr/const_ptr.rs" }>, align 1
@alloc_2ccd2131cbb2141f4002ae13de3a4fb5 = private unnamed_addr constant <{ ptr, [16 x i8] }> <{ ptr @alloc_50dd3b7d4aade49dcbc3721992361615, [16 x i8] c"C\00\00\00\00\00\00\00\19\06\00\00\0D\00\00\00" }>, align 8
@alloc_d83bad394aa3743d4316ebb57a3b65ab = private unnamed_addr constant <{ [92 x i8] }> <{ [92 x i8] c"unsafe precondition(s) violated: NonZero::new_unchecked requires the argument to be non-zero" }>, align 1
@alloc_20b3d155afd5c58c42e598b7e6d186ef = private unnamed_addr constant <{ [93 x i8] }> <{ [93 x i8] c"unsafe precondition(s) violated: NonNull::new_unchecked requires that the pointer is non-null" }>, align 1
@alloc_1eb6f53a157dccb32488e066ad957e6d = private unnamed_addr constant <{ [82 x i8] }> <{ [82 x i8] c"unsafe precondition(s) violated: hint::unreachable_unchecked must never be reached" }>, align 1
@alloc_96ab912d0054b46da785b206a96c9a45 = private unnamed_addr constant <{ [49 x i8] }> <{ [49 x i8] c"there is no such thing as an acquire-release load" }>, align 1
@alloc_7e8e9a1d4bc7d0bbec692f0a50681e22 = private unnamed_addr constant <{ ptr, [8 x i8] }> <{ ptr @alloc_96ab912d0054b46da785b206a96c9a45, [8 x i8] c"1\00\00\00\00\00\00\00" }>, align 8
@alloc_9cd20c3e415f4d39f0ceb012cb758628 = private unnamed_addr constant <{ [40 x i8] }> <{ [40 x i8] c"there is no such thing as a release load" }>, align 1
@alloc_cf8f91dd8bc9347b20052f6ccc905cd7 = private unnamed_addr constant <{ ptr, [8 x i8] }> <{ ptr @alloc_9cd20c3e415f4d39f0ceb012cb758628, [8 x i8] c"(\00\00\00\00\00\00\00" }>, align 8
@alloc_cbc2a90520f8a6704cdbd0899469f036 = private unnamed_addr constant <{ [65 x i8] }> <{ [65 x i8] c"/home/zjac281/Desktop/RustMC/rust/library/core/src/sync/atomic.rs" }>, align 1
@alloc_20de7b3ea271afbde6a21b8e0cfc3c3c = private unnamed_addr constant <{ ptr, [16 x i8] }> <{ ptr @alloc_cbc2a90520f8a6704cdbd0899469f036, [16 x i8] c"A\00\00\00\00\00\00\00\F4\0C\00\00\18\00\00\00" }>, align 8
@alloc_83c68d497b94097f7e5228337b3609c0 = private unnamed_addr constant <{ ptr, [16 x i8] }> <{ ptr @alloc_cbc2a90520f8a6704cdbd0899469f036, [16 x i8] c"A\00\00\00\00\00\00\00\F5\0C\00\00\17\00\00\00" }>, align 8
@alloc_5a43f8d94dd4505c1dba43832ce73af8 = private unnamed_addr constant <{ [52 x i8] }> <{ [52 x i8] c"there is no such thing as a release failure ordering" }>, align 1
@alloc_04ab601c54c6e0a22ff11d72dc7f4511 = private unnamed_addr constant <{ ptr, [8 x i8] }> <{ ptr @alloc_5a43f8d94dd4505c1dba43832ce73af8, [8 x i8] c"4\00\00\00\00\00\00\00" }>, align 8
@alloc_7adef5546d83b439c7829602020737c6 = private unnamed_addr constant <{ [61 x i8] }> <{ [61 x i8] c"there is no such thing as an acquire-release failure ordering" }>, align 1
@alloc_dd7d8f77c173bf31726eae321f955bec = private unnamed_addr constant <{ ptr, [8 x i8] }> <{ ptr @alloc_7adef5546d83b439c7829602020737c6, [8 x i8] c"=\00\00\00\00\00\00\00" }>, align 8
@alloc_61d1bd7ca24904dee30b7f3a59b8ac1f = private unnamed_addr constant <{ ptr, [16 x i8] }> <{ ptr @alloc_cbc2a90520f8a6704cdbd0899469f036, [16 x i8] c"A\00\00\00\00\00\00\00l\0D\00\00\1D\00\00\00" }>, align 8
@alloc_631f920c080d001ae4058cb0cb27f095 = private unnamed_addr constant <{ ptr, [16 x i8] }> <{ ptr @alloc_cbc2a90520f8a6704cdbd0899469f036, [16 x i8] c"A\00\00\00\00\00\00\00k\0D\00\00\1C\00\00\00" }>, align 8
@alloc_556e4180596b5b612bb6ed6c0cbb55e1 = private unnamed_addr constant <{ [2 x i8] }> <{ [2 x i8] c": " }>, align 1
@alloc_7fd13544aa69fcb3281c2adb95eede52 = private unnamed_addr constant <{ ptr, [8 x i8], ptr, [8 x i8] }> <{ ptr inttoptr (i64 1 to ptr), [8 x i8] zeroinitializer, ptr @alloc_556e4180596b5b612bb6ed6c0cbb55e1, [8 x i8] c"\02\00\00\00\00\00\00\00" }>, align 8
@vtable.1 = private constant <{ ptr, [16 x i8], ptr }> <{ ptr @"_ZN4core3ptr42drop_in_place$LT$std..io..error..Error$GT$17h3cce0f6809332407E", [16 x i8] c"\08\00\00\00\00\00\00\00\08\00\00\00\00\00\00\00", ptr @"_ZN58_$LT$std..io..error..Error$u20$as$u20$core..fmt..Debug$GT$3fmt17hdabdd3a2a8dbece0E" }>, align 8, !dbg !368
@vtable.2 = private constant <{ [24 x i8], ptr }> <{ [24 x i8] c"\00\00\00\00\00\00\00\00\00\00\00\00\00\00\00\00\01\00\00\00\00\00\00\00", ptr @"_ZN68_$LT$std..thread..local..AccessError$u20$as$u20$core..fmt..Debug$GT$3fmt17he82995aa8b0058a5E" }>, align 8, !dbg !483
@vtable.3 = private constant <{ [24 x i8], ptr }> <{ [24 x i8] c"\00\00\00\00\00\00\00\00\00\00\00\00\00\00\00\00\01\00\00\00\00\00\00\00", ptr @"_ZN69_$LT$core..alloc..layout..LayoutError$u20$as$u20$core..fmt..Debug$GT$3fmt17he4ac877f414d79e2E" }>, align 8, !dbg !493
@alloc_00ae4b301f7fab8ac9617c03fcbd7274 = private unnamed_addr constant <{ [43 x i8] }> <{ [43 x i8] c"called `Result::unwrap()` on an `Err` value" }>, align 1
@vtable.4 = private constant <{ [24 x i8], ptr }> <{ [24 x i8] c"\00\00\00\00\00\00\00\00\08\00\00\00\00\00\00\00\08\00\00\00\00\00\00\00", ptr @"_ZN42_$LT$$RF$T$u20$as$u20$core..fmt..Debug$GT$3fmt17h9884af4b75fbcf80E" }>, align 8, !dbg !504
@alloc_e3c93c6ad2d336e0c63414f9d18046e7 = private unnamed_addr constant <{ [59 x i8] }> <{ [59 x i8] c"/home/zjac281/Desktop/RustMC/rust/library/alloc/src/sync.rs" }>, align 1
@alloc_eab5796370b872b68ff31f264418174e = private unnamed_addr constant <{ ptr, [16 x i8] }> <{ ptr @alloc_e3c93c6ad2d336e0c63414f9d18046e7, [16 x i8] c";\00\00\00\00\00\00\00p\01\00\002\00\00\00" }>, align 8
@alloc_477d6fd19596379e27b9bd4358550877 = private unnamed_addr constant <{ [11 x i8] }> <{ [11 x i8] c"LayoutError" }>, align 1
@alloc_929e9b2e7b7429614ca4fc017efff666 = private unnamed_addr constant <{ [41 x i8] }> <{ [41 x i8] c"there is no such thing as a relaxed fence" }>, align 1
@alloc_39071d8363362e29009d9bb27c1e4df5 = private unnamed_addr constant <{ ptr, [8 x i8] }> <{ ptr @alloc_929e9b2e7b7429614ca4fc017efff666, [8 x i8] c")\00\00\00\00\00\00\00" }>, align 8
@alloc_a26bf732652430d3fd33a953b0af2f59 = private unnamed_addr constant <{ [133 x i8] }> <{ [133 x i8] c"Arcs backed by a static should never reach a strong count of 0. Likely decrement_strong_count or from_raw were called too many times." }>, align 1
@alloc_a865d543e3f23b106342c3b86278cef3 = private unnamed_addr constant <{ ptr, [8 x i8] }> <{ ptr @alloc_a26bf732652430d3fd33a953b0af2f59, [8 x i8] c"\85\00\00\00\00\00\00\00" }>, align 8
@alloc_54c9eea5e1e220d0f4257e256833abb4 = private unnamed_addr constant <{ [127 x i8] }> <{ [127 x i8] c"Arc/Weaks backed by a static should never be deallocated. Likely decrement_strong_count or from_raw were called too many times." }>, align 1
@alloc_2efc6b3f377c1fc49b12e3ac5ad67ebd = private unnamed_addr constant <{ ptr, [8 x i8] }> <{ ptr @alloc_54c9eea5e1e220d0f4257e256833abb4, [8 x i8] c"\7F\00\00\00\00\00\00\00" }>, align 8
@alloc_e96fb6e25c55edb0aec8b24d111f5d7f = private unnamed_addr constant <{ [101 x i8] }> <{ [101 x i8] c"unsafe precondition(s) violated: slice::get_unchecked_mut requires that the index is within the slice" }>, align 1
@x = internal global i32 0, align 4
@y = internal global i32 0, align 4
@_ZN3std6thread10CURRENT_ID17h6a62d35e076fe504E = dso_local global i64 1, align 8
@__dso_handle = dso_local global ptr @__dso_handle, align 8

; Function Attrs: alwaysinline nounwind nonlazybind
define dso_local i64 @start(i64 %_argc, ptr %_argv) unnamed_addr #0 !dbg !627 {
start:
  call void @llvm.dbg.declare(metadata ptr poison, metadata !634, metadata !DIExpression()), !dbg !636
  call void @llvm.dbg.declare(metadata ptr poison, metadata !635, metadata !DIExpression()), !dbg !637
  %_3 = call i32 @main() #20, !dbg !638
  ret i64 0, !dbg !639
}

; Function Attrs: nocallback nofree nosync nounwind speculatable willreturn memory(none)
declare void @llvm.dbg.declare(metadata, metadata, metadata) #1

; Function Attrs: alwaysinline nounwind nonlazybind
define dso_local i32 @main() unnamed_addr #0 !dbg !640 {
start:
  %_1 = alloca [24 x i8], align 8
  call fastcc void @_ZN3std6thread5spawn17h25d466f67fc2fc9fE(ptr noalias align 8 %_1) #20, !dbg !643
  call fastcc void @"_ZN4core3ptr60drop_in_place$LT$std..thread..JoinHandle$LT$$LP$$RP$$GT$$GT$17h7c11485a5182e9e7E"(ptr align 8 %_1) #20, !dbg !644
  ret i32 0, !dbg !645
}

; Function Attrs: nounwind nonlazybind
define internal fastcc void @_ZN3std6thread5spawn17h25d466f67fc2fc9fE(ptr noalias align 8 %_0) unnamed_addr #2 !dbg !646 {
start:
  %_4 = alloca [24 x i8], align 8
  %self = alloca [40 x i8], align 1
  %_2 = alloca [24 x i8], align 8
  call void @llvm.dbg.declare(metadata ptr poison, metadata !665, metadata !DIExpression()), !dbg !668
  call void @llvm.dbg.declare(metadata ptr poison, metadata !669, metadata !DIExpression()), !dbg !725
  call void @llvm.dbg.declare(metadata ptr %self, metadata !724, metadata !DIExpression()), !dbg !727
  store i64 -9223372036854775808, ptr %_4, align 8, !dbg !728
  %0 = getelementptr inbounds i8, ptr %self, i64 16, !dbg !735
  call void @llvm.memcpy.p0.p0.i64(ptr align 1 %0, ptr align 8 %_4, i64 24, i1 false), !dbg !735
  store i64 0, ptr %self, align 1, !dbg !735
  %1 = getelementptr inbounds i8, ptr %self, i64 8, !dbg !735
  store i64 undef, ptr %1, align 1, !dbg !735
  call fastcc void @_ZN3std6thread7Builder15spawn_unchecked17he74b18926535d160E(ptr noalias align 8 %_2, ptr align 1 %self) #20, !dbg !736
  call fastcc void @"_ZN4core6result19Result$LT$T$C$E$GT$6expect17h80313a89d93bdfe7E"(ptr noalias align 8 %_0, ptr align 8 %_2, i64 22) #20, !dbg !734
  ret void, !dbg !737
}

; Function Attrs: alwaysinline nounwind nonlazybind
define internal fastcc void @"_ZN4core3ptr60drop_in_place$LT$std..thread..JoinHandle$LT$$LP$$RP$$GT$$GT$17h7c11485a5182e9e7E"(ptr align 8 %_1) unnamed_addr #3 !dbg !738 {
start:
  call void @llvm.dbg.declare(metadata ptr poison, metadata !744, metadata !DIExpression()), !dbg !746
  call fastcc void @"_ZN4core3ptr59drop_in_place$LT$std..thread..JoinInner$LT$$LP$$RP$$GT$$GT$17hec608f2f0614fe83E"(ptr align 8 %_1) #20, !dbg !746
  ret void, !dbg !746
}

; Function Attrs: alwaysinline nounwind nonlazybind
define internal fastcc void @"_ZN4core3ptr59drop_in_place$LT$std..thread..JoinInner$LT$$LP$$RP$$GT$$GT$17hec608f2f0614fe83E"(ptr align 8 %_1) unnamed_addr #3 !dbg !747 {
start:
  call void @llvm.dbg.declare(metadata ptr poison, metadata !752, metadata !DIExpression()), !dbg !755
  %0 = getelementptr inbounds i8, ptr %_1, i64 16, !dbg !755
  call fastcc void @"_ZN4core3ptr56drop_in_place$LT$std..sys..pal..unix..thread..Thread$GT$17h618d7cb71fed3dccE"(ptr align 8 %0) #20, !dbg !755
  call fastcc void @"_ZN4core3ptr40drop_in_place$LT$std..thread..Thread$GT$17h4710cefd6a51ca9eE"(ptr align 8 %_1) #20, !dbg !755
  %1 = getelementptr inbounds i8, ptr %_1, i64 8, !dbg !755
  call fastcc void @"_ZN4core3ptr80drop_in_place$LT$alloc..sync..Arc$LT$std..thread..Packet$LT$$LP$$RP$$GT$$GT$$GT$17h9fbb0c71a37ba120E"(ptr align 8 %1) #20, !dbg !755
  ret void, !dbg !755
}

; Function Attrs: alwaysinline nounwind nonlazybind
define internal fastcc void @"_ZN4core3ptr56drop_in_place$LT$std..sys..pal..unix..thread..Thread$GT$17h618d7cb71fed3dccE"(ptr align 8 %_1) unnamed_addr #3 !dbg !756 {
start:
  call void @llvm.dbg.declare(metadata ptr poison, metadata !761, metadata !DIExpression()), !dbg !764
  call fastcc void @"_ZN77_$LT$std..sys..pal..unix..thread..Thread$u20$as$u20$core..ops..drop..Drop$GT$4drop17h1611cee509873bb8E"(ptr align 8 %_1) #20, !dbg !764
  ret void, !dbg !764
}

; Function Attrs: alwaysinline nounwind nonlazybind
define internal fastcc void @"_ZN4core3ptr40drop_in_place$LT$std..thread..Thread$GT$17h4710cefd6a51ca9eE"(ptr align 8 %_1) unnamed_addr #3 !dbg !765 {
start:
  call void @llvm.dbg.declare(metadata ptr poison, metadata !770, metadata !DIExpression()), !dbg !773
  call fastcc void @"_ZN4core3ptr85drop_in_place$LT$core..pin..Pin$LT$alloc..sync..Arc$LT$std..thread..Inner$GT$$GT$$GT$17h2e791f4647b0aaacE"(ptr align 8 %_1) #20, !dbg !773
  ret void, !dbg !773
}

; Function Attrs: alwaysinline nounwind nonlazybind
define internal fastcc void @"_ZN4core3ptr80drop_in_place$LT$alloc..sync..Arc$LT$std..thread..Packet$LT$$LP$$RP$$GT$$GT$$GT$17h9fbb0c71a37ba120E"(ptr align 8 %_1) unnamed_addr #3 !dbg !774 {
start:
  call void @llvm.dbg.declare(metadata ptr poison, metadata !779, metadata !DIExpression()), !dbg !782
  call fastcc void @"_ZN71_$LT$alloc..sync..Arc$LT$T$C$A$GT$$u20$as$u20$core..ops..drop..Drop$GT$4drop17h1f789e45d55dee25E"(ptr align 8 %_1) #20, !dbg !782
  ret void, !dbg !782
}

; Function Attrs: alwaysinline nounwind nonlazybind
define internal fastcc void @"_ZN71_$LT$alloc..sync..Arc$LT$T$C$A$GT$$u20$as$u20$core..ops..drop..Drop$GT$4drop17h1f789e45d55dee25E"(ptr align 8 %self) unnamed_addr #3 !dbg !783 {
start:
  %0 = alloca [8 x i8], align 8
  %dst.dbg.spill = alloca [8 x i8], align 8
  %self.dbg.spill10 = alloca [8 x i8], align 8
  %self.dbg.spill9 = alloca [8 x i8], align 8
  %self.dbg.spill8 = alloca [8 x i8], align 8
  %self.dbg.spill7 = alloca [8 x i8], align 8
  %self.dbg.spill5 = alloca [8 x i8], align 8
  %self.dbg.spill = alloca [8 x i8], align 8
  %pieces.dbg.spill4 = alloca [8 x i8], align 8
  %pieces.dbg.spill = alloca [8 x i8], align 8
  %order.dbg.spill3 = alloca [1 x i8], align 1
  %order.dbg.spill2 = alloca [1 x i8], align 1
  %val.dbg.spill1 = alloca [8 x i8], align 8
  %order.dbg.spill = alloca [1 x i8], align 1
  %val.dbg.spill = alloca [8 x i8], align 8
  store i64 1, ptr %val.dbg.spill, align 8, !dbg !791
  call void @llvm.dbg.declare(metadata ptr %val.dbg.spill, metadata !801, metadata !DIExpression()), !dbg !791
  store i8 1, ptr %order.dbg.spill, align 1, !dbg !804
  call void @llvm.dbg.declare(metadata ptr %order.dbg.spill, metadata !802, metadata !DIExpression()), !dbg !804
  store i64 1, ptr %val.dbg.spill1, align 8, !dbg !805
  call void @llvm.dbg.declare(metadata ptr %val.dbg.spill1, metadata !813, metadata !DIExpression()), !dbg !805
  store i8 1, ptr %order.dbg.spill2, align 1, !dbg !816
  call void @llvm.dbg.declare(metadata ptr %order.dbg.spill2, metadata !814, metadata !DIExpression()), !dbg !816
  store i8 2, ptr %order.dbg.spill3, align 1, !dbg !817
  call void @llvm.dbg.declare(metadata ptr %order.dbg.spill3, metadata !823, metadata !DIExpression()), !dbg !817
  store ptr @alloc_39071d8363362e29009d9bb27c1e4df5, ptr %pieces.dbg.spill, align 8, !dbg !825
  call void @llvm.dbg.declare(metadata ptr %pieces.dbg.spill, metadata !954, metadata !DIExpression()), !dbg !825
  store ptr @alloc_a865d543e3f23b106342c3b86278cef3, ptr %pieces.dbg.spill4, align 8, !dbg !960
  call void @llvm.dbg.declare(metadata ptr %pieces.dbg.spill4, metadata !955, metadata !DIExpression()), !dbg !960
  store ptr %self, ptr %self.dbg.spill, align 8, !dbg !960
  call void @llvm.dbg.declare(metadata ptr %self.dbg.spill, metadata !790, metadata !DIExpression()), !dbg !963
  call void @llvm.dbg.declare(metadata ptr %self.dbg.spill, metadata !964, metadata !DIExpression()), !dbg !973
  store ptr %self, ptr %self.dbg.spill5, align 8, !dbg !975
  call void @llvm.dbg.declare(metadata ptr %self.dbg.spill5, metadata !976, metadata !DIExpression()), !dbg !985
  %self6 = load ptr, ptr %self, align 8, !dbg !987
  store ptr %self6, ptr %self.dbg.spill7, align 8, !dbg !987
  call void @llvm.dbg.declare(metadata ptr %self.dbg.spill7, metadata !988, metadata !DIExpression()), !dbg !998
  store ptr %self6, ptr %self.dbg.spill8, align 8, !dbg !1000
  call void @llvm.dbg.declare(metadata ptr %self.dbg.spill8, metadata !1001, metadata !DIExpression()), !dbg !1010
  store ptr %self6, ptr %self.dbg.spill9, align 8, !dbg !1012
  call void @llvm.dbg.declare(metadata ptr %self.dbg.spill9, metadata !800, metadata !DIExpression()), !dbg !1013
  store ptr %self6, ptr %self.dbg.spill10, align 8, !dbg !1014
  call void @llvm.dbg.declare(metadata ptr %self.dbg.spill10, metadata !1015, metadata !DIExpression()), !dbg !1024
  store ptr %self6, ptr %dst.dbg.spill, align 8, !dbg !1026
  call void @llvm.dbg.declare(metadata ptr %dst.dbg.spill, metadata !812, metadata !DIExpression()), !dbg !1027
  %1 = atomicrmw sub ptr %self6, i64 1 release, align 8, !dbg !1028
  store i64 %1, ptr %0, align 8, !dbg !1028
  %_2 = load i64, ptr %0, align 8, !dbg !1028
  %2 = icmp eq i64 %_2, 1, !dbg !1012
  br i1 %2, label %bb2, label %bb1, !dbg !1012

bb2:                                              ; preds = %start
  fence acquire, !dbg !1029
  call fastcc void @"_ZN5alloc4sync16Arc$LT$T$C$A$GT$9drop_slow17hd1287418f88324daE"(ptr align 8 %self) #20, !dbg !1030
  br label %bb3, !dbg !1030

bb1:                                              ; preds = %start
  br label %bb3, !dbg !1031

bb3:                                              ; preds = %bb1, %bb2
  ret void, !dbg !1031
}

; Function Attrs: noinline nounwind nonlazybind
define internal fastcc void @"_ZN5alloc4sync16Arc$LT$T$C$A$GT$9drop_slow17hd1287418f88324daE"(ptr align 8 %self) unnamed_addr #4 !dbg !1032 {
start:
  %_x = alloca [16 x i8], align 8
  call void @llvm.dbg.declare(metadata ptr poison, metadata !1035, metadata !DIExpression()), !dbg !1036
  call void @llvm.dbg.declare(metadata ptr poison, metadata !1037, metadata !DIExpression()), !dbg !1045
  call void @llvm.dbg.declare(metadata ptr %_x, metadata !1047, metadata !DIExpression()), !dbg !1063
  %self1 = load ptr, ptr %self, align 8, !dbg !1065
  call void @llvm.dbg.declare(metadata ptr poison, metadata !1066, metadata !DIExpression()), !dbg !1070
  %_3 = getelementptr inbounds i8, ptr %self1, i64 16, !dbg !1046
  call fastcc void @"_ZN4core3ptr56drop_in_place$LT$std..thread..Packet$LT$$LP$$RP$$GT$$GT$17hd142323fbd09ef7cE"(ptr align 8 %_3) #20, !dbg !1072
  %_5 = load ptr, ptr %self, align 8, !dbg !1073
  %_6 = getelementptr inbounds i8, ptr %self, i64 8, !dbg !1074
  store ptr %_5, ptr %_x, align 8, !dbg !1075
  %0 = getelementptr inbounds i8, ptr %_x, i64 8, !dbg !1075
  store ptr %_6, ptr %0, align 8, !dbg !1075
  call fastcc void @"_ZN4core3ptr108drop_in_place$LT$alloc..sync..Weak$LT$std..thread..Packet$LT$$LP$$RP$$GT$$C$$RF$alloc..alloc..Global$GT$$GT$17he8654deed09c3e3aE"(ptr align 8 %_x) #20, !dbg !1076
  ret void, !dbg !1077
}

; Function Attrs: alwaysinline nounwind nonlazybind
define internal fastcc void @"_ZN4core3ptr56drop_in_place$LT$std..thread..Packet$LT$$LP$$RP$$GT$$GT$17hd142323fbd09ef7cE"(ptr align 8 %_1) unnamed_addr #3 !dbg !1078 {
start:
  call void @llvm.dbg.declare(metadata ptr poison, metadata !1083, metadata !DIExpression()), !dbg !1084
  call fastcc void @"_ZN70_$LT$std..thread..Packet$LT$T$GT$$u20$as$u20$core..ops..drop..Drop$GT$4drop17hd3193a75eac8b859E"(ptr align 8 %_1) #20, !dbg !1084
  call fastcc void @"_ZN4core3ptr103drop_in_place$LT$core..option..Option$LT$alloc..sync..Arc$LT$std..thread..scoped..ScopeData$GT$$GT$$GT$17hfca7ef100ee7ed2dE"(ptr align 8 %_1) #20, !dbg !1084
  %0 = getelementptr inbounds i8, ptr %_1, i64 8, !dbg !1084
  call fastcc void @"_ZN4core3ptr188drop_in_place$LT$core..cell..UnsafeCell$LT$core..option..Option$LT$core..result..Result$LT$$LP$$RP$$C$alloc..boxed..Box$LT$dyn$u20$core..any..Any$u2b$core..marker..Send$GT$$GT$$GT$$GT$$GT$17h7ecc9a1c4ae421c1E"(ptr align 8 %0) #20, !dbg !1084
  ret void, !dbg !1084
}

; Function Attrs: alwaysinline nounwind nonlazybind
define internal fastcc void @"_ZN4core3ptr108drop_in_place$LT$alloc..sync..Weak$LT$std..thread..Packet$LT$$LP$$RP$$GT$$C$$RF$alloc..alloc..Global$GT$$GT$17he8654deed09c3e3aE"(ptr align 8 %_1) unnamed_addr #3 !dbg !1085 {
start:
  call void @llvm.dbg.declare(metadata ptr poison, metadata !1090, metadata !DIExpression()), !dbg !1091
  call fastcc void @"_ZN72_$LT$alloc..sync..Weak$LT$T$C$A$GT$$u20$as$u20$core..ops..drop..Drop$GT$4drop17h7a579205d40f511dE"(ptr align 8 %_1) #20, !dbg !1091
  ret void, !dbg !1091
}

; Function Attrs: alwaysinline nounwind nonlazybind
define internal fastcc void @"_ZN72_$LT$alloc..sync..Weak$LT$T$C$A$GT$$u20$as$u20$core..ops..drop..Drop$GT$4drop17h7a579205d40f511dE"(ptr align 8 %self) unnamed_addr #3 !dbg !1092 {
start:
  %0 = alloca [8 x i8], align 8
  %1 = alloca [8 x i8], align 8
  %2 = alloca [8 x i8], align 8
  %dst.dbg.spill = alloca [8 x i8], align 8
  %self.dbg.spill11 = alloca [8 x i8], align 8
  %inner.dbg.spill10 = alloca [8 x i8], align 8
  %inner.dbg.spill = alloca [8 x i8], align 8
  %self.dbg.spill8 = alloca [8 x i8], align 8
  %ptr.dbg.spill7 = alloca [8 x i8], align 8
  %ptr.dbg.spill = alloca [8 x i8], align 8
  %self.dbg.spill6 = alloca [8 x i8], align 8
  %self.dbg.spill = alloca [8 x i8], align 8
  %_2 = alloca [16 x i8], align 8
  %pieces.dbg.spill4 = alloca [8 x i8], align 8
  %pieces.dbg.spill = alloca [8 x i8], align 8
  %order.dbg.spill3 = alloca [1 x i8], align 1
  %order.dbg.spill2 = alloca [1 x i8], align 1
  %val.dbg.spill1 = alloca [8 x i8], align 8
  %order.dbg.spill = alloca [1 x i8], align 1
  %val.dbg.spill = alloca [8 x i8], align 8
  store i64 1, ptr %val.dbg.spill, align 8, !dbg !1107
  call void @llvm.dbg.declare(metadata ptr %val.dbg.spill, metadata !1112, metadata !DIExpression()), !dbg !1107
  store i8 1, ptr %order.dbg.spill, align 1, !dbg !1115
  call void @llvm.dbg.declare(metadata ptr %order.dbg.spill, metadata !1113, metadata !DIExpression()), !dbg !1115
  store i64 1, ptr %val.dbg.spill1, align 8, !dbg !1116
  call void @llvm.dbg.declare(metadata ptr %val.dbg.spill1, metadata !1121, metadata !DIExpression()), !dbg !1116
  store i8 1, ptr %order.dbg.spill2, align 1, !dbg !1124
  call void @llvm.dbg.declare(metadata ptr %order.dbg.spill2, metadata !1122, metadata !DIExpression()), !dbg !1124
  store i8 2, ptr %order.dbg.spill3, align 1, !dbg !1125
  call void @llvm.dbg.declare(metadata ptr %order.dbg.spill3, metadata !1129, metadata !DIExpression()), !dbg !1125
  store ptr @alloc_39071d8363362e29009d9bb27c1e4df5, ptr %pieces.dbg.spill, align 8, !dbg !1131
  call void @llvm.dbg.declare(metadata ptr %pieces.dbg.spill, metadata !1135, metadata !DIExpression()), !dbg !1131
  store ptr @alloc_2efc6b3f377c1fc49b12e3ac5ad67ebd, ptr %pieces.dbg.spill4, align 8, !dbg !1140
  call void @llvm.dbg.declare(metadata ptr %pieces.dbg.spill4, metadata !1136, metadata !DIExpression()), !dbg !1140
  store ptr %self, ptr %self.dbg.spill, align 8, !dbg !1140
  call void @llvm.dbg.declare(metadata ptr %self.dbg.spill, metadata !1098, metadata !DIExpression()), !dbg !1143
  call void @llvm.dbg.declare(metadata ptr %self.dbg.spill, metadata !1144, metadata !DIExpression()), !dbg !1167
  %self5 = load ptr, ptr %self, align 8, !dbg !1169
  store ptr %self5, ptr %self.dbg.spill6, align 8, !dbg !1169
  call void @llvm.dbg.declare(metadata ptr %self.dbg.spill6, metadata !1170, metadata !DIExpression()), !dbg !1180
  store ptr %self5, ptr %ptr.dbg.spill, align 8, !dbg !1182
  call void @llvm.dbg.declare(metadata ptr %ptr.dbg.spill, metadata !1183, metadata !DIExpression()), !dbg !1192
  call void @llvm.dbg.declare(metadata ptr %ptr.dbg.spill, metadata !1194, metadata !DIExpression()), !dbg !1205
  store ptr %self5, ptr %ptr.dbg.spill7, align 8, !dbg !1182
  call void @llvm.dbg.declare(metadata ptr %ptr.dbg.spill7, metadata !1165, metadata !DIExpression()), !dbg !1207
  store ptr %self5, ptr %self.dbg.spill8, align 8, !dbg !1208
  call void @llvm.dbg.declare(metadata ptr %self.dbg.spill8, metadata !1209, metadata !DIExpression()), !dbg !1215
  call void @llvm.dbg.declare(metadata ptr %self.dbg.spill8, metadata !1217, metadata !DIExpression()), !dbg !1224
  %_20 = ptrtoint ptr %self5 to i64, !dbg !1226
  %_15 = icmp eq i64 %_20, -1, !dbg !1227
  br i1 %_15, label %bb6, label %bb7, !dbg !1193

bb7:                                              ; preds = %start
  %_18 = getelementptr inbounds i8, ptr %self5, i64 8, !dbg !1228
  store ptr %_18, ptr %_2, align 8, !dbg !1229
  %3 = getelementptr inbounds i8, ptr %_2, i64 8, !dbg !1229
  store ptr %self5, ptr %3, align 8, !dbg !1229
  %inner = load ptr, ptr %_2, align 8, !dbg !1230
  store ptr %inner, ptr %inner.dbg.spill, align 8, !dbg !1230
  call void @llvm.dbg.declare(metadata ptr %inner.dbg.spill, metadata !1099, metadata !DIExpression(DW_OP_LLVM_fragment, 0, 64)), !dbg !1231
  call void @llvm.dbg.declare(metadata ptr %inner.dbg.spill, metadata !1105, metadata !DIExpression(DW_OP_LLVM_fragment, 0, 64)), !dbg !1230
  call void @llvm.dbg.declare(metadata ptr %inner.dbg.spill, metadata !1111, metadata !DIExpression()), !dbg !1232
  %4 = getelementptr inbounds i8, ptr %_2, i64 8, !dbg !1230
  %inner9 = load ptr, ptr %4, align 8, !dbg !1230
  store ptr %inner9, ptr %inner.dbg.spill10, align 8, !dbg !1230
  call void @llvm.dbg.declare(metadata ptr %inner.dbg.spill10, metadata !1099, metadata !DIExpression(DW_OP_LLVM_fragment, 64, 64)), !dbg !1231
  call void @llvm.dbg.declare(metadata ptr %inner.dbg.spill10, metadata !1105, metadata !DIExpression(DW_OP_LLVM_fragment, 64, 64)), !dbg !1230
  store ptr %inner, ptr %self.dbg.spill11, align 8, !dbg !1233
  call void @llvm.dbg.declare(metadata ptr %self.dbg.spill11, metadata !1234, metadata !DIExpression()), !dbg !1238
  store ptr %inner, ptr %dst.dbg.spill, align 8, !dbg !1240
  call void @llvm.dbg.declare(metadata ptr %dst.dbg.spill, metadata !1120, metadata !DIExpression()), !dbg !1241
  %5 = atomicrmw sub ptr %inner, i64 1 release, align 8, !dbg !1242
  store i64 %5, ptr %2, align 8, !dbg !1242
  %_3 = load i64, ptr %2, align 8, !dbg !1242
  %6 = icmp eq i64 %_3, 1, !dbg !1243
  br i1 %6, label %bb1, label %bb3, !dbg !1243

bb6:                                              ; preds = %start
  br label %bb5, !dbg !1244

bb1:                                              ; preds = %bb7
  fence acquire, !dbg !1245
  %_8 = getelementptr inbounds i8, ptr %self, i64 8, !dbg !1246
  %self12 = load ptr, ptr %self, align 8, !dbg !1247
  call void @llvm.dbg.declare(metadata ptr poison, metadata !1248, metadata !DIExpression()), !dbg !1257
  call void @llvm.dbg.declare(metadata ptr poison, metadata !1176, metadata !DIExpression()), !dbg !1259
  call void @llvm.dbg.declare(metadata ptr poison, metadata !1178, metadata !DIExpression()), !dbg !1261
  call void @llvm.dbg.declare(metadata ptr poison, metadata !1263, metadata !DIExpression()), !dbg !1281
  call void @llvm.dbg.declare(metadata ptr poison, metadata !1283, metadata !DIExpression()), !dbg !1289
  call void @llvm.dbg.declare(metadata ptr poison, metadata !1291, metadata !DIExpression()), !dbg !1295
  store i64 48, ptr %1, align 8, !dbg !1297
  %size = load i64, ptr %1, align 8, !dbg !1297
  call void @llvm.dbg.declare(metadata ptr poison, metadata !1278, metadata !DIExpression()), !dbg !1298
  call void @llvm.dbg.declare(metadata ptr poison, metadata !1299, metadata !DIExpression()), !dbg !1307
  store i64 8, ptr %0, align 8, !dbg !1309
  %align = load i64, ptr %0, align 8, !dbg !1309
  call void @llvm.dbg.declare(metadata ptr poison, metadata !1280, metadata !DIExpression()), !dbg !1310
  call void @llvm.dbg.declare(metadata ptr poison, metadata !1306, metadata !DIExpression()), !dbg !1311
  call void @llvm.dbg.declare(metadata ptr poison, metadata !1312, metadata !DIExpression()), !dbg !1320
  call fastcc void @"_ZN48_$LT$$RF$A$u20$as$u20$core..alloc..Allocator$GT$10deallocate17h0f53f72c32059d76E"(ptr align 8 %_8, ptr %self12, i64 %align, i64 %size) #20, !dbg !1246
  br label %bb4, !dbg !1322

bb3:                                              ; preds = %bb7
  br label %bb4, !dbg !1322

bb4:                                              ; preds = %bb3, %bb1
  br label %bb5, !dbg !1244

bb5:                                              ; preds = %bb4, %bb6
  ret void, !dbg !1244
}

; Function Attrs: inlinehint nounwind nonlazybind
define internal fastcc void @"_ZN48_$LT$$RF$A$u20$as$u20$core..alloc..Allocator$GT$10deallocate17h0f53f72c32059d76E"(ptr align 8 %self, ptr %ptr, i64 %layout.0, i64 %layout.1) unnamed_addr #5 !dbg !1323 {
start:
  call void @llvm.dbg.declare(metadata ptr poison, metadata !1330, metadata !DIExpression()), !dbg !1334
  call void @llvm.dbg.declare(metadata ptr poison, metadata !1331, metadata !DIExpression()), !dbg !1335
  call void @llvm.dbg.declare(metadata ptr poison, metadata !1332, metadata !DIExpression()), !dbg !1336
  %_4 = load ptr, ptr %self, align 8, !dbg !1337
  call fastcc void @"_ZN63_$LT$alloc..alloc..Global$u20$as$u20$core..alloc..Allocator$GT$10deallocate17h11895959db45ce84E"(ptr align 1 %_4, ptr %ptr, i64 %layout.0, i64 %layout.1) #20, !dbg !1337
  ret void, !dbg !1338
}

; Function Attrs: inlinehint nounwind nonlazybind
define internal fastcc void @"_ZN63_$LT$alloc..alloc..Global$u20$as$u20$core..alloc..Allocator$GT$10deallocate17h11895959db45ce84E"(ptr align 1 %self, ptr %ptr, i64 %0, i64 %1) unnamed_addr #5 !dbg !1339 {
start:
  %_13 = alloca [8 x i8], align 8
  %layout = alloca [16 x i8], align 8
  store i64 %0, ptr %layout, align 8
  %2 = getelementptr inbounds i8, ptr %layout, i64 8
  store i64 %1, ptr %2, align 8
  call void @llvm.dbg.declare(metadata ptr poison, metadata !1345, metadata !DIExpression()), !dbg !1348
  call void @llvm.dbg.declare(metadata ptr poison, metadata !1346, metadata !DIExpression()), !dbg !1349
  call void @llvm.dbg.declare(metadata ptr poison, metadata !1350, metadata !DIExpression()), !dbg !1358
  call void @llvm.dbg.declare(metadata ptr %layout, metadata !1347, metadata !DIExpression()), !dbg !1360
  call void @llvm.dbg.declare(metadata ptr poison, metadata !1361, metadata !DIExpression()), !dbg !1368
  call void @llvm.dbg.declare(metadata ptr poison, metadata !1370, metadata !DIExpression()), !dbg !1380
  %3 = getelementptr inbounds i8, ptr %layout, i64 8, !dbg !1382
  %_4 = load i64, ptr %3, align 8, !dbg !1382
  %4 = icmp eq i64 %_4, 0, !dbg !1383
  br i1 %4, label %bb2, label %bb1, !dbg !1383

bb2:                                              ; preds = %bb1, %start
  ret void, !dbg !1384

bb1:                                              ; preds = %start
  call void @llvm.dbg.declare(metadata ptr poison, metadata !1367, metadata !DIExpression()), !dbg !1385
  call void @llvm.dbg.declare(metadata ptr poison, metadata !1378, metadata !DIExpression()), !dbg !1386
  call void @llvm.dbg.declare(metadata ptr poison, metadata !1388, metadata !DIExpression()), !dbg !1393
  %self6 = load i64, ptr %layout, align 8, !dbg !1395
  call void @llvm.dbg.declare(metadata ptr poison, metadata !1396, metadata !DIExpression()), !dbg !1403
  store i64 %self6, ptr %_13, align 8, !dbg !1405
  %_14 = load i64, ptr %_13, align 8, !dbg !1405
  %_15 = icmp uge i64 %_14, 1, !dbg !1405
  %_16 = icmp ule i64 %_14, -9223372036854775808, !dbg !1405
  call void @__rust_dealloc(ptr %ptr, i64 %_4, i64 %_14) #20, !dbg !1406
  br label %bb2, !dbg !1407
}

; Function Attrs: nounwind nonlazybind allockind("free")
declare void @__rust_dealloc(ptr allocptr, i64, i64) unnamed_addr #6

; Function Attrs: alwaysinline nounwind nonlazybind
define internal fastcc void @"_ZN70_$LT$std..thread..Packet$LT$T$GT$$u20$as$u20$core..ops..drop..Drop$GT$4drop17hd3193a75eac8b859E"(ptr align 8 %self) unnamed_addr #3 !dbg !1408 {
start:
  %unhandled_panic = alloca [1 x i8], align 1
  call void @llvm.dbg.declare(metadata ptr poison, metadata !1413, metadata !DIExpression()), !dbg !1419
  call void @llvm.dbg.declare(metadata ptr %unhandled_panic, metadata !1414, metadata !DIExpression()), !dbg !1420
  call void @llvm.dbg.declare(metadata ptr poison, metadata !1421, metadata !DIExpression()), !dbg !1430
  %0 = getelementptr inbounds i8, ptr %self, i64 8, !dbg !1432
  %_5 = load i64, ptr %0, align 8, !dbg !1432
  %1 = icmp eq i64 %_5, 1, !dbg !1433
  br i1 %1, label %bb2, label %bb1, !dbg !1433

bb2:                                              ; preds = %start
  %2 = getelementptr inbounds i8, ptr %self, i64 8, !dbg !1432
  %3 = getelementptr inbounds i8, ptr %2, i64 8, !dbg !1432
  %4 = load ptr, ptr %3, align 8, !dbg !1432
  %5 = ptrtoint ptr %4 to i64, !dbg !1432
  %6 = icmp eq i64 %5, 0, !dbg !1432
  %_4 = select i1 %6, i64 0, i64 1, !dbg !1432
  %7 = icmp eq i64 %_4, 1, !dbg !1433
  br i1 %7, label %bb3, label %bb1, !dbg !1433

bb1:                                              ; preds = %bb2, %start
  store i8 0, ptr %unhandled_panic, align 1, !dbg !1433
  br label %bb4, !dbg !1433

bb3:                                              ; preds = %bb2
  store i8 1, ptr %unhandled_panic, align 1, !dbg !1433
  br label %bb4, !dbg !1433

bb4:                                              ; preds = %bb3, %bb1
  %8 = load ptr, ptr %self, align 8, !dbg !1434
  %9 = ptrtoint ptr %8 to i64, !dbg !1434
  %10 = icmp eq i64 %9, 0, !dbg !1434
  %_6 = select i1 %10, i64 0, i64 1, !dbg !1434
  %11 = icmp eq i64 %_6, 1, !dbg !1435
  br i1 %11, label %bb5, label %bb7, !dbg !1435

bb5:                                              ; preds = %bb4
  call void @llvm.dbg.declare(metadata ptr poison, metadata !1416, metadata !DIExpression()), !dbg !1436
  call void @llvm.dbg.declare(metadata ptr poison, metadata !1437, metadata !DIExpression()), !dbg !1444
  call void @llvm.dbg.declare(metadata ptr poison, metadata !1446, metadata !DIExpression()), !dbg !1454
  call void @llvm.dbg.declare(metadata ptr poison, metadata !1456, metadata !DIExpression()), !dbg !1464
  %self5 = load ptr, ptr %self, align 8, !dbg !1466
  call void @llvm.dbg.declare(metadata ptr poison, metadata !1467, metadata !DIExpression()), !dbg !1475
  call void @llvm.dbg.declare(metadata ptr poison, metadata !1477, metadata !DIExpression()), !dbg !1483
  %_9 = getelementptr inbounds i8, ptr %self5, i64 16, !dbg !1445
  %12 = load i8, ptr %unhandled_panic, align 1, !dbg !1485
  %_11 = trunc i8 %12 to i1, !dbg !1485
  call void @_ZN3std6thread6scoped9ScopeData29decrement_num_running_threads17h382312882fbc537fE(ptr align 8 %_9, i1 zeroext %_11) #20, !dbg !1445
  br label %bb7, !dbg !1486

bb7:                                              ; preds = %bb5, %bb4
  ret void, !dbg !1487
}

; Function Attrs: alwaysinline nounwind nonlazybind
define internal fastcc void @"_ZN4core3ptr103drop_in_place$LT$core..option..Option$LT$alloc..sync..Arc$LT$std..thread..scoped..ScopeData$GT$$GT$$GT$17hfca7ef100ee7ed2dE"(ptr align 8 %_1) unnamed_addr #3 !dbg !1488 {
start:
  call void @llvm.dbg.declare(metadata ptr poison, metadata !1493, metadata !DIExpression()), !dbg !1496
  %0 = load ptr, ptr %_1, align 8, !dbg !1496
  %1 = ptrtoint ptr %0 to i64, !dbg !1496
  %2 = icmp eq i64 %1, 0, !dbg !1496
  %_2 = select i1 %2, i64 0, i64 1, !dbg !1496
  %3 = icmp eq i64 %_2, 0, !dbg !1496
  br i1 %3, label %bb1, label %bb2, !dbg !1496

bb1:                                              ; preds = %bb2, %start
  ret void, !dbg !1496

bb2:                                              ; preds = %start
  call fastcc void @"_ZN4core3ptr75drop_in_place$LT$alloc..sync..Arc$LT$std..thread..scoped..ScopeData$GT$$GT$17h5e4ac6b8016a545cE"(ptr align 8 %_1) #20, !dbg !1496
  br label %bb1, !dbg !1496
}

; Function Attrs: alwaysinline nounwind nonlazybind
define internal fastcc void @"_ZN4core3ptr188drop_in_place$LT$core..cell..UnsafeCell$LT$core..option..Option$LT$core..result..Result$LT$$LP$$RP$$C$alloc..boxed..Box$LT$dyn$u20$core..any..Any$u2b$core..marker..Send$GT$$GT$$GT$$GT$$GT$17h7ecc9a1c4ae421c1E"(ptr align 8 %_1) unnamed_addr #3 !dbg !1497 {
start:
  call void @llvm.dbg.declare(metadata ptr poison, metadata !1502, metadata !DIExpression()), !dbg !1505
  call fastcc void @"_ZN4core3ptr158drop_in_place$LT$core..option..Option$LT$core..result..Result$LT$$LP$$RP$$C$alloc..boxed..Box$LT$dyn$u20$core..any..Any$u2b$core..marker..Send$GT$$GT$$GT$$GT$17hb88d0f17d02aad14E"(ptr align 8 %_1) #20, !dbg !1505
  ret void, !dbg !1505
}

; Function Attrs: alwaysinline nounwind nonlazybind
define internal fastcc void @"_ZN4core3ptr158drop_in_place$LT$core..option..Option$LT$core..result..Result$LT$$LP$$RP$$C$alloc..boxed..Box$LT$dyn$u20$core..any..Any$u2b$core..marker..Send$GT$$GT$$GT$$GT$17hb88d0f17d02aad14E"(ptr align 8 %_1) unnamed_addr #3 !dbg !1506 {
start:
  call void @llvm.dbg.declare(metadata ptr poison, metadata !1511, metadata !DIExpression()), !dbg !1512
  %_2 = load i64, ptr %_1, align 8, !dbg !1512
  %0 = icmp eq i64 %_2, 0, !dbg !1512
  br i1 %0, label %bb1, label %bb2, !dbg !1512

bb1:                                              ; preds = %bb2, %start
  ret void, !dbg !1512

bb2:                                              ; preds = %start
  %1 = getelementptr inbounds i8, ptr %_1, i64 8, !dbg !1512
  call fastcc void @"_ZN4core3ptr130drop_in_place$LT$core..result..Result$LT$$LP$$RP$$C$alloc..boxed..Box$LT$dyn$u20$core..any..Any$u2b$core..marker..Send$GT$$GT$$GT$17h388dd13508e2ac9bE"(ptr align 8 %1) #20, !dbg !1512
  br label %bb1, !dbg !1512
}

; Function Attrs: alwaysinline nounwind nonlazybind
define internal fastcc void @"_ZN4core3ptr130drop_in_place$LT$core..result..Result$LT$$LP$$RP$$C$alloc..boxed..Box$LT$dyn$u20$core..any..Any$u2b$core..marker..Send$GT$$GT$$GT$17h388dd13508e2ac9bE"(ptr align 8 %_1) unnamed_addr #3 !dbg !1513 {
start:
  call void @llvm.dbg.declare(metadata ptr poison, metadata !1518, metadata !DIExpression()), !dbg !1519
  %0 = load ptr, ptr %_1, align 8, !dbg !1519
  %1 = ptrtoint ptr %0 to i64, !dbg !1519
  %2 = icmp eq i64 %1, 0, !dbg !1519
  %_2 = select i1 %2, i64 0, i64 1, !dbg !1519
  %3 = icmp eq i64 %_2, 0, !dbg !1519
  br i1 %3, label %bb1, label %bb2, !dbg !1519

bb1:                                              ; preds = %bb2, %start
  ret void, !dbg !1519

bb2:                                              ; preds = %start
  call fastcc void @"_ZN4core3ptr91drop_in_place$LT$alloc..boxed..Box$LT$dyn$u20$core..any..Any$u2b$core..marker..Send$GT$$GT$17h92f7cca368912ecaE"(ptr align 8 %_1) #20, !dbg !1519
  br label %bb1, !dbg !1519
}

; Function Attrs: alwaysinline nounwind nonlazybind
define internal fastcc void @"_ZN4core3ptr91drop_in_place$LT$alloc..boxed..Box$LT$dyn$u20$core..any..Any$u2b$core..marker..Send$GT$$GT$17h92f7cca368912ecaE"(ptr align 8 %_1) unnamed_addr #3 !dbg !1520 {
start:
  call void @llvm.dbg.declare(metadata ptr poison, metadata !1525, metadata !DIExpression()), !dbg !1528
  %_6.0 = load ptr, ptr %_1, align 8, !dbg !1528
  %0 = getelementptr inbounds i8, ptr %_1, i64 8, !dbg !1528
  %_6.1 = load ptr, ptr %0, align 8, !dbg !1528
  %1 = getelementptr inbounds i8, ptr %_6.1, i64 0, !dbg !1528
  %2 = load ptr, ptr %1, align 8, !dbg !1528, !invariant.load !27
  %3 = icmp ne ptr %2, null, !dbg !1528
  br i1 %3, label %is_not_null, label %bb2, !dbg !1528

is_not_null:                                      ; preds = %start
  call void %2(ptr align 1 %_6.0) #20, !dbg !1528
  br label %bb2, !dbg !1528

bb2:                                              ; preds = %is_not_null, %start
  call fastcc void @"_ZN72_$LT$alloc..boxed..Box$LT$T$C$A$GT$$u20$as$u20$core..ops..drop..Drop$GT$4drop17hea818a03c262c44bE"(ptr align 8 %_1) #20, !dbg !1528
  ret void, !dbg !1528
}

; Function Attrs: inlinehint nounwind nonlazybind
define internal fastcc void @"_ZN72_$LT$alloc..boxed..Box$LT$T$C$A$GT$$u20$as$u20$core..ops..drop..Drop$GT$4drop17hea818a03c262c44bE"(ptr align 8 %self) unnamed_addr #5 !dbg !1529 {
start:
  %0 = alloca [8 x i8], align 8
  %1 = alloca [8 x i8], align 8
  %layout = alloca [16 x i8], align 8
  call void @llvm.dbg.declare(metadata ptr poison, metadata !1537, metadata !DIExpression()), !dbg !1557
  call void @llvm.dbg.declare(metadata ptr %layout, metadata !1554, metadata !DIExpression()), !dbg !1558
  %ptr.0 = load ptr, ptr %self, align 8, !dbg !1559
  %2 = getelementptr inbounds i8, ptr %self, i64 8, !dbg !1559
  %ptr.1 = load ptr, ptr %2, align 8, !dbg !1559
  call void @llvm.dbg.declare(metadata ptr poison, metadata !1538, metadata !DIExpression()), !dbg !1560
  call void @llvm.dbg.declare(metadata ptr poison, metadata !1561, metadata !DIExpression()), !dbg !1573
  call void @llvm.dbg.declare(metadata ptr poison, metadata !1575, metadata !DIExpression()), !dbg !1584
  call void @llvm.dbg.declare(metadata ptr poison, metadata !1586, metadata !DIExpression()), !dbg !1594
  call void @llvm.dbg.declare(metadata ptr poison, metadata !1596, metadata !DIExpression()), !dbg !1603
  call void @llvm.dbg.declare(metadata ptr poison, metadata !1582, metadata !DIExpression()), !dbg !1605
  call void @llvm.dbg.declare(metadata ptr poison, metadata !1607, metadata !DIExpression()), !dbg !1617
  call void @llvm.dbg.declare(metadata ptr poison, metadata !1619, metadata !DIExpression()), !dbg !1625
  call void @llvm.dbg.declare(metadata ptr poison, metadata !1627, metadata !DIExpression()), !dbg !1631
  %3 = getelementptr inbounds i8, ptr %ptr.1, i64 8, !dbg !1633
  %4 = load i64, ptr %3, align 8, !dbg !1633, !invariant.load !27
  %5 = getelementptr inbounds i8, ptr %ptr.1, i64 16, !dbg !1633
  store i64 %4, ptr %1, align 8, !dbg !1633
  %size = load i64, ptr %1, align 8, !dbg !1633
  call void @llvm.dbg.declare(metadata ptr poison, metadata !1614, metadata !DIExpression()), !dbg !1634
  call void @llvm.dbg.declare(metadata ptr poison, metadata !1635, metadata !DIExpression()), !dbg !1640
  %6 = getelementptr inbounds i8, ptr %ptr.1, i64 8, !dbg !1642
  %7 = getelementptr inbounds i8, ptr %ptr.1, i64 16, !dbg !1642
  %8 = load i64, ptr %7, align 8, !dbg !1642, !invariant.load !27
  store i64 %8, ptr %0, align 8, !dbg !1642
  %align = load i64, ptr %0, align 8, !dbg !1642
  call void @llvm.dbg.declare(metadata ptr poison, metadata !1616, metadata !DIExpression()), !dbg !1643
  call void @llvm.dbg.declare(metadata ptr poison, metadata !1639, metadata !DIExpression()), !dbg !1644
  call void @llvm.dbg.declare(metadata ptr poison, metadata !1645, metadata !DIExpression()), !dbg !1649
  %9 = getelementptr inbounds i8, ptr %layout, i64 8, !dbg !1651
  store i64 %size, ptr %9, align 8, !dbg !1651
  store i64 %align, ptr %layout, align 8, !dbg !1651
  call void @llvm.dbg.declare(metadata ptr poison, metadata !1652, metadata !DIExpression()), !dbg !1656
  %10 = icmp eq i64 %size, 0, !dbg !1658
  br i1 %10, label %bb3, label %bb1, !dbg !1658

bb3:                                              ; preds = %bb1, %start
  ret void, !dbg !1659

bb1:                                              ; preds = %start
  %_5 = getelementptr inbounds i8, ptr %self, i64 16, !dbg !1660
  call void @llvm.dbg.declare(metadata ptr poison, metadata !1661, metadata !DIExpression()), !dbg !1668
  call void @llvm.dbg.declare(metadata ptr poison, metadata !1670, metadata !DIExpression()), !dbg !1675
  %11 = load i64, ptr %layout, align 8, !dbg !1660
  %12 = getelementptr inbounds i8, ptr %layout, i64 8, !dbg !1660
  %13 = load i64, ptr %12, align 8, !dbg !1660
  call fastcc void @"_ZN63_$LT$alloc..alloc..Global$u20$as$u20$core..alloc..Allocator$GT$10deallocate17h11895959db45ce84E"(ptr align 1 %_5, ptr %ptr.0, i64 %11, i64 %13) #20, !dbg !1660
  br label %bb3, !dbg !1677
}

; Function Attrs: alwaysinline nounwind nonlazybind
define internal fastcc void @"_ZN4core3ptr75drop_in_place$LT$alloc..sync..Arc$LT$std..thread..scoped..ScopeData$GT$$GT$17h5e4ac6b8016a545cE"(ptr align 8 %_1) unnamed_addr #3 !dbg !1678 {
start:
  call void @llvm.dbg.declare(metadata ptr poison, metadata !1683, metadata !DIExpression()), !dbg !1684
  call fastcc void @"_ZN71_$LT$alloc..sync..Arc$LT$T$C$A$GT$$u20$as$u20$core..ops..drop..Drop$GT$4drop17hed13751d9cee9ca0E"(ptr align 8 %_1) #20, !dbg !1684
  ret void, !dbg !1684
}

; Function Attrs: alwaysinline nounwind nonlazybind
define internal fastcc void @"_ZN71_$LT$alloc..sync..Arc$LT$T$C$A$GT$$u20$as$u20$core..ops..drop..Drop$GT$4drop17hed13751d9cee9ca0E"(ptr align 8 %self) unnamed_addr #3 !dbg !1685 {
start:
  %0 = alloca [8 x i8], align 8
  %dst.dbg.spill = alloca [8 x i8], align 8
  %self.dbg.spill10 = alloca [8 x i8], align 8
  %self.dbg.spill9 = alloca [8 x i8], align 8
  %self.dbg.spill8 = alloca [8 x i8], align 8
  %self.dbg.spill7 = alloca [8 x i8], align 8
  %self.dbg.spill5 = alloca [8 x i8], align 8
  %self.dbg.spill = alloca [8 x i8], align 8
  %pieces.dbg.spill4 = alloca [8 x i8], align 8
  %pieces.dbg.spill = alloca [8 x i8], align 8
  %order.dbg.spill3 = alloca [1 x i8], align 1
  %order.dbg.spill2 = alloca [1 x i8], align 1
  %val.dbg.spill1 = alloca [8 x i8], align 8
  %order.dbg.spill = alloca [1 x i8], align 1
  %val.dbg.spill = alloca [8 x i8], align 8
  store i64 1, ptr %val.dbg.spill, align 8, !dbg !1691
  call void @llvm.dbg.declare(metadata ptr %val.dbg.spill, metadata !1696, metadata !DIExpression()), !dbg !1691
  store i8 1, ptr %order.dbg.spill, align 1, !dbg !1699
  call void @llvm.dbg.declare(metadata ptr %order.dbg.spill, metadata !1697, metadata !DIExpression()), !dbg !1699
  store i64 1, ptr %val.dbg.spill1, align 8, !dbg !1700
  call void @llvm.dbg.declare(metadata ptr %val.dbg.spill1, metadata !1705, metadata !DIExpression()), !dbg !1700
  store i8 1, ptr %order.dbg.spill2, align 1, !dbg !1708
  call void @llvm.dbg.declare(metadata ptr %order.dbg.spill2, metadata !1706, metadata !DIExpression()), !dbg !1708
  store i8 2, ptr %order.dbg.spill3, align 1, !dbg !1709
  call void @llvm.dbg.declare(metadata ptr %order.dbg.spill3, metadata !1713, metadata !DIExpression()), !dbg !1709
  store ptr @alloc_39071d8363362e29009d9bb27c1e4df5, ptr %pieces.dbg.spill, align 8, !dbg !1715
  call void @llvm.dbg.declare(metadata ptr %pieces.dbg.spill, metadata !1719, metadata !DIExpression()), !dbg !1715
  store ptr @alloc_a865d543e3f23b106342c3b86278cef3, ptr %pieces.dbg.spill4, align 8, !dbg !1724
  call void @llvm.dbg.declare(metadata ptr %pieces.dbg.spill4, metadata !1720, metadata !DIExpression()), !dbg !1724
  store ptr %self, ptr %self.dbg.spill, align 8, !dbg !1724
  call void @llvm.dbg.declare(metadata ptr %self.dbg.spill, metadata !1690, metadata !DIExpression()), !dbg !1727
  call void @llvm.dbg.declare(metadata ptr %self.dbg.spill, metadata !1728, metadata !DIExpression()), !dbg !1732
  store ptr %self, ptr %self.dbg.spill5, align 8, !dbg !1734
  call void @llvm.dbg.declare(metadata ptr %self.dbg.spill5, metadata !1735, metadata !DIExpression()), !dbg !1739
  %self6 = load ptr, ptr %self, align 8, !dbg !1741
  store ptr %self6, ptr %self.dbg.spill7, align 8, !dbg !1741
  call void @llvm.dbg.declare(metadata ptr %self.dbg.spill7, metadata !1742, metadata !DIExpression()), !dbg !1748
  store ptr %self6, ptr %self.dbg.spill8, align 8, !dbg !1750
  call void @llvm.dbg.declare(metadata ptr %self.dbg.spill8, metadata !1751, metadata !DIExpression()), !dbg !1755
  store ptr %self6, ptr %self.dbg.spill9, align 8, !dbg !1757
  call void @llvm.dbg.declare(metadata ptr %self.dbg.spill9, metadata !1695, metadata !DIExpression()), !dbg !1758
  store ptr %self6, ptr %self.dbg.spill10, align 8, !dbg !1759
  call void @llvm.dbg.declare(metadata ptr %self.dbg.spill10, metadata !1760, metadata !DIExpression()), !dbg !1764
  store ptr %self6, ptr %dst.dbg.spill, align 8, !dbg !1766
  call void @llvm.dbg.declare(metadata ptr %dst.dbg.spill, metadata !1704, metadata !DIExpression()), !dbg !1767
  %1 = atomicrmw sub ptr %self6, i64 1 release, align 8, !dbg !1768
  store i64 %1, ptr %0, align 8, !dbg !1768
  %_2 = load i64, ptr %0, align 8, !dbg !1768
  %2 = icmp eq i64 %_2, 1, !dbg !1757
  br i1 %2, label %bb2, label %bb1, !dbg !1757

bb2:                                              ; preds = %start
  fence acquire, !dbg !1769
  call fastcc void @"_ZN5alloc4sync16Arc$LT$T$C$A$GT$9drop_slow17h99a760be671b704cE"(ptr align 8 %self) #20, !dbg !1770
  br label %bb3, !dbg !1770

bb1:                                              ; preds = %start
  br label %bb3, !dbg !1771

bb3:                                              ; preds = %bb1, %bb2
  ret void, !dbg !1771
}

; Function Attrs: noinline nounwind nonlazybind
define internal fastcc void @"_ZN5alloc4sync16Arc$LT$T$C$A$GT$9drop_slow17h99a760be671b704cE"(ptr align 8 %self) unnamed_addr #4 !dbg !1772 {
start:
  %_x = alloca [16 x i8], align 8
  call void @llvm.dbg.declare(metadata ptr poison, metadata !1775, metadata !DIExpression()), !dbg !1776
  call void @llvm.dbg.declare(metadata ptr poison, metadata !1777, metadata !DIExpression()), !dbg !1785
  call void @llvm.dbg.declare(metadata ptr %_x, metadata !1787, metadata !DIExpression()), !dbg !1800
  %self1 = load ptr, ptr %self, align 8, !dbg !1802
  call void @llvm.dbg.declare(metadata ptr poison, metadata !1803, metadata !DIExpression()), !dbg !1807
  %_3 = getelementptr inbounds i8, ptr %self1, i64 16, !dbg !1786
  call fastcc void @"_ZN4core3ptr51drop_in_place$LT$std..thread..scoped..ScopeData$GT$17h0a27ba83abbe4f5aE"(ptr align 8 %_3) #20, !dbg !1809
  %_5 = load ptr, ptr %self, align 8, !dbg !1810
  %_6 = getelementptr inbounds i8, ptr %self, i64 8, !dbg !1811
  store ptr %_5, ptr %_x, align 8, !dbg !1812
  %0 = getelementptr inbounds i8, ptr %_x, i64 8, !dbg !1812
  store ptr %_6, ptr %0, align 8, !dbg !1812
  call fastcc void @"_ZN4core3ptr103drop_in_place$LT$alloc..sync..Weak$LT$std..thread..scoped..ScopeData$C$$RF$alloc..alloc..Global$GT$$GT$17h429efddc46ea6784E"(ptr align 8 %_x) #20, !dbg !1813
  ret void, !dbg !1814
}

; Function Attrs: alwaysinline nounwind nonlazybind
define internal fastcc void @"_ZN4core3ptr51drop_in_place$LT$std..thread..scoped..ScopeData$GT$17h0a27ba83abbe4f5aE"(ptr align 8 %_1) unnamed_addr #3 !dbg !1815 {
start:
  call void @llvm.dbg.declare(metadata ptr poison, metadata !1820, metadata !DIExpression()), !dbg !1821
  call fastcc void @"_ZN4core3ptr40drop_in_place$LT$std..thread..Thread$GT$17h4710cefd6a51ca9eE"(ptr align 8 %_1) #20, !dbg !1821
  ret void, !dbg !1821
}

; Function Attrs: alwaysinline nounwind nonlazybind
define internal fastcc void @"_ZN4core3ptr103drop_in_place$LT$alloc..sync..Weak$LT$std..thread..scoped..ScopeData$C$$RF$alloc..alloc..Global$GT$$GT$17h429efddc46ea6784E"(ptr align 8 %_1) unnamed_addr #3 !dbg !1822 {
start:
  call void @llvm.dbg.declare(metadata ptr poison, metadata !1827, metadata !DIExpression()), !dbg !1828
  call fastcc void @"_ZN72_$LT$alloc..sync..Weak$LT$T$C$A$GT$$u20$as$u20$core..ops..drop..Drop$GT$4drop17h7c48200c2ac814cfE"(ptr align 8 %_1) #20, !dbg !1828
  ret void, !dbg !1828
}

; Function Attrs: alwaysinline nounwind nonlazybind
define internal fastcc void @"_ZN72_$LT$alloc..sync..Weak$LT$T$C$A$GT$$u20$as$u20$core..ops..drop..Drop$GT$4drop17h7c48200c2ac814cfE"(ptr align 8 %self) unnamed_addr #3 !dbg !1829 {
start:
  %0 = alloca [8 x i8], align 8
  %1 = alloca [8 x i8], align 8
  %2 = alloca [8 x i8], align 8
  %dst.dbg.spill = alloca [8 x i8], align 8
  %self.dbg.spill11 = alloca [8 x i8], align 8
  %inner.dbg.spill10 = alloca [8 x i8], align 8
  %inner.dbg.spill = alloca [8 x i8], align 8
  %self.dbg.spill8 = alloca [8 x i8], align 8
  %ptr.dbg.spill7 = alloca [8 x i8], align 8
  %ptr.dbg.spill = alloca [8 x i8], align 8
  %self.dbg.spill6 = alloca [8 x i8], align 8
  %self.dbg.spill = alloca [8 x i8], align 8
  %_2 = alloca [16 x i8], align 8
  %pieces.dbg.spill4 = alloca [8 x i8], align 8
  %pieces.dbg.spill = alloca [8 x i8], align 8
  %order.dbg.spill3 = alloca [1 x i8], align 1
  %order.dbg.spill2 = alloca [1 x i8], align 1
  %val.dbg.spill1 = alloca [8 x i8], align 8
  %order.dbg.spill = alloca [1 x i8], align 1
  %val.dbg.spill = alloca [8 x i8], align 8
  store i64 1, ptr %val.dbg.spill, align 8, !dbg !1839
  call void @llvm.dbg.declare(metadata ptr %val.dbg.spill, metadata !1844, metadata !DIExpression()), !dbg !1839
  store i8 1, ptr %order.dbg.spill, align 1, !dbg !1847
  call void @llvm.dbg.declare(metadata ptr %order.dbg.spill, metadata !1845, metadata !DIExpression()), !dbg !1847
  store i64 1, ptr %val.dbg.spill1, align 8, !dbg !1848
  call void @llvm.dbg.declare(metadata ptr %val.dbg.spill1, metadata !1853, metadata !DIExpression()), !dbg !1848
  store i8 1, ptr %order.dbg.spill2, align 1, !dbg !1856
  call void @llvm.dbg.declare(metadata ptr %order.dbg.spill2, metadata !1854, metadata !DIExpression()), !dbg !1856
  store i8 2, ptr %order.dbg.spill3, align 1, !dbg !1857
  call void @llvm.dbg.declare(metadata ptr %order.dbg.spill3, metadata !1861, metadata !DIExpression()), !dbg !1857
  store ptr @alloc_39071d8363362e29009d9bb27c1e4df5, ptr %pieces.dbg.spill, align 8, !dbg !1863
  call void @llvm.dbg.declare(metadata ptr %pieces.dbg.spill, metadata !1867, metadata !DIExpression()), !dbg !1863
  store ptr @alloc_2efc6b3f377c1fc49b12e3ac5ad67ebd, ptr %pieces.dbg.spill4, align 8, !dbg !1872
  call void @llvm.dbg.declare(metadata ptr %pieces.dbg.spill4, metadata !1868, metadata !DIExpression()), !dbg !1872
  store ptr %self, ptr %self.dbg.spill, align 8, !dbg !1872
  call void @llvm.dbg.declare(metadata ptr %self.dbg.spill, metadata !1834, metadata !DIExpression()), !dbg !1875
  call void @llvm.dbg.declare(metadata ptr %self.dbg.spill, metadata !1876, metadata !DIExpression()), !dbg !1886
  %self5 = load ptr, ptr %self, align 8, !dbg !1888
  store ptr %self5, ptr %self.dbg.spill6, align 8, !dbg !1888
  call void @llvm.dbg.declare(metadata ptr %self.dbg.spill6, metadata !1889, metadata !DIExpression()), !dbg !1899
  store ptr %self5, ptr %ptr.dbg.spill, align 8, !dbg !1901
  call void @llvm.dbg.declare(metadata ptr %ptr.dbg.spill, metadata !1902, metadata !DIExpression()), !dbg !1908
  call void @llvm.dbg.declare(metadata ptr %ptr.dbg.spill, metadata !1910, metadata !DIExpression()), !dbg !1917
  store ptr %self5, ptr %ptr.dbg.spill7, align 8, !dbg !1901
  call void @llvm.dbg.declare(metadata ptr %ptr.dbg.spill7, metadata !1884, metadata !DIExpression()), !dbg !1919
  store ptr %self5, ptr %self.dbg.spill8, align 8, !dbg !1920
  call void @llvm.dbg.declare(metadata ptr %self.dbg.spill8, metadata !1921, metadata !DIExpression()), !dbg !1925
  call void @llvm.dbg.declare(metadata ptr %self.dbg.spill8, metadata !1927, metadata !DIExpression()), !dbg !1931
  %_20 = ptrtoint ptr %self5 to i64, !dbg !1933
  %_15 = icmp eq i64 %_20, -1, !dbg !1934
  br i1 %_15, label %bb6, label %bb7, !dbg !1909

bb7:                                              ; preds = %start
  %_18 = getelementptr inbounds i8, ptr %self5, i64 8, !dbg !1935
  store ptr %_18, ptr %_2, align 8, !dbg !1936
  %3 = getelementptr inbounds i8, ptr %_2, i64 8, !dbg !1936
  store ptr %self5, ptr %3, align 8, !dbg !1936
  %inner = load ptr, ptr %_2, align 8, !dbg !1937
  store ptr %inner, ptr %inner.dbg.spill, align 8, !dbg !1937
  call void @llvm.dbg.declare(metadata ptr %inner.dbg.spill, metadata !1835, metadata !DIExpression(DW_OP_LLVM_fragment, 0, 64)), !dbg !1938
  call void @llvm.dbg.declare(metadata ptr %inner.dbg.spill, metadata !1837, metadata !DIExpression(DW_OP_LLVM_fragment, 0, 64)), !dbg !1937
  call void @llvm.dbg.declare(metadata ptr %inner.dbg.spill, metadata !1843, metadata !DIExpression()), !dbg !1939
  %4 = getelementptr inbounds i8, ptr %_2, i64 8, !dbg !1937
  %inner9 = load ptr, ptr %4, align 8, !dbg !1937
  store ptr %inner9, ptr %inner.dbg.spill10, align 8, !dbg !1937
  call void @llvm.dbg.declare(metadata ptr %inner.dbg.spill10, metadata !1835, metadata !DIExpression(DW_OP_LLVM_fragment, 64, 64)), !dbg !1938
  call void @llvm.dbg.declare(metadata ptr %inner.dbg.spill10, metadata !1837, metadata !DIExpression(DW_OP_LLVM_fragment, 64, 64)), !dbg !1937
  store ptr %inner, ptr %self.dbg.spill11, align 8, !dbg !1940
  call void @llvm.dbg.declare(metadata ptr %self.dbg.spill11, metadata !1941, metadata !DIExpression()), !dbg !1945
  store ptr %inner, ptr %dst.dbg.spill, align 8, !dbg !1947
  call void @llvm.dbg.declare(metadata ptr %dst.dbg.spill, metadata !1852, metadata !DIExpression()), !dbg !1948
  %5 = atomicrmw sub ptr %inner, i64 1 release, align 8, !dbg !1949
  store i64 %5, ptr %2, align 8, !dbg !1949
  %_3 = load i64, ptr %2, align 8, !dbg !1949
  %6 = icmp eq i64 %_3, 1, !dbg !1950
  br i1 %6, label %bb1, label %bb3, !dbg !1950

bb6:                                              ; preds = %start
  br label %bb5, !dbg !1951

bb1:                                              ; preds = %bb7
  fence acquire, !dbg !1952
  %_8 = getelementptr inbounds i8, ptr %self, i64 8, !dbg !1953
  %self12 = load ptr, ptr %self, align 8, !dbg !1954
  call void @llvm.dbg.declare(metadata ptr poison, metadata !1955, metadata !DIExpression()), !dbg !1963
  call void @llvm.dbg.declare(metadata ptr poison, metadata !1895, metadata !DIExpression()), !dbg !1965
  call void @llvm.dbg.declare(metadata ptr poison, metadata !1897, metadata !DIExpression()), !dbg !1967
  call void @llvm.dbg.declare(metadata ptr poison, metadata !1969, metadata !DIExpression()), !dbg !1979
  call void @llvm.dbg.declare(metadata ptr poison, metadata !1981, metadata !DIExpression()), !dbg !1987
  call void @llvm.dbg.declare(metadata ptr poison, metadata !1989, metadata !DIExpression()), !dbg !1993
  store i64 40, ptr %1, align 8, !dbg !1995
  %size = load i64, ptr %1, align 8, !dbg !1995
  call void @llvm.dbg.declare(metadata ptr poison, metadata !1976, metadata !DIExpression()), !dbg !1996
  call void @llvm.dbg.declare(metadata ptr poison, metadata !1997, metadata !DIExpression()), !dbg !2002
  store i64 8, ptr %0, align 8, !dbg !2004
  %align = load i64, ptr %0, align 8, !dbg !2004
  call void @llvm.dbg.declare(metadata ptr poison, metadata !1978, metadata !DIExpression()), !dbg !2005
  call void @llvm.dbg.declare(metadata ptr poison, metadata !2001, metadata !DIExpression()), !dbg !2006
  call void @llvm.dbg.declare(metadata ptr poison, metadata !2007, metadata !DIExpression()), !dbg !2011
  call fastcc void @"_ZN48_$LT$$RF$A$u20$as$u20$core..alloc..Allocator$GT$10deallocate17h0f53f72c32059d76E"(ptr align 8 %_8, ptr %self12, i64 %align, i64 %size) #20, !dbg !1953
  br label %bb4, !dbg !2013

bb3:                                              ; preds = %bb7
  br label %bb4, !dbg !2013

bb4:                                              ; preds = %bb3, %bb1
  br label %bb5, !dbg !1951

bb5:                                              ; preds = %bb4, %bb6
  ret void, !dbg !1951
}

; Function Attrs: nounwind nonlazybind
declare void @_ZN3std6thread6scoped9ScopeData29decrement_num_running_threads17h382312882fbc537fE(ptr align 8, i1 zeroext) unnamed_addr #2

; Function Attrs: alwaysinline nounwind nonlazybind
define internal fastcc void @"_ZN4core3ptr85drop_in_place$LT$core..pin..Pin$LT$alloc..sync..Arc$LT$std..thread..Inner$GT$$GT$$GT$17h2e791f4647b0aaacE"(ptr align 8 %_1) unnamed_addr #3 !dbg !2014 {
start:
  call void @llvm.dbg.declare(metadata ptr poison, metadata !2019, metadata !DIExpression()), !dbg !2022
  call fastcc void @"_ZN4core3ptr63drop_in_place$LT$alloc..sync..Arc$LT$std..thread..Inner$GT$$GT$17ha2665975e4e97bbbE"(ptr align 8 %_1) #20, !dbg !2022
  ret void, !dbg !2022
}

; Function Attrs: alwaysinline nounwind nonlazybind
define internal fastcc void @"_ZN4core3ptr63drop_in_place$LT$alloc..sync..Arc$LT$std..thread..Inner$GT$$GT$17ha2665975e4e97bbbE"(ptr align 8 %_1) unnamed_addr #3 !dbg !2023 {
start:
  call void @llvm.dbg.declare(metadata ptr poison, metadata !2028, metadata !DIExpression()), !dbg !2031
  call fastcc void @"_ZN71_$LT$alloc..sync..Arc$LT$T$C$A$GT$$u20$as$u20$core..ops..drop..Drop$GT$4drop17h4527f639c1249448E"(ptr align 8 %_1) #20, !dbg !2031
  ret void, !dbg !2031
}

; Function Attrs: alwaysinline nounwind nonlazybind
define internal fastcc void @"_ZN71_$LT$alloc..sync..Arc$LT$T$C$A$GT$$u20$as$u20$core..ops..drop..Drop$GT$4drop17h4527f639c1249448E"(ptr align 8 %self) unnamed_addr #3 !dbg !2032 {
start:
  %0 = alloca [8 x i8], align 8
  %dst.dbg.spill = alloca [8 x i8], align 8
  %self.dbg.spill10 = alloca [8 x i8], align 8
  %self.dbg.spill9 = alloca [8 x i8], align 8
  %self.dbg.spill8 = alloca [8 x i8], align 8
  %self.dbg.spill7 = alloca [8 x i8], align 8
  %self.dbg.spill5 = alloca [8 x i8], align 8
  %self.dbg.spill = alloca [8 x i8], align 8
  %pieces.dbg.spill4 = alloca [8 x i8], align 8
  %pieces.dbg.spill = alloca [8 x i8], align 8
  %order.dbg.spill3 = alloca [1 x i8], align 1
  %order.dbg.spill2 = alloca [1 x i8], align 1
  %val.dbg.spill1 = alloca [8 x i8], align 8
  %order.dbg.spill = alloca [1 x i8], align 1
  %val.dbg.spill = alloca [8 x i8], align 8
  store i64 1, ptr %val.dbg.spill, align 8, !dbg !2038
  call void @llvm.dbg.declare(metadata ptr %val.dbg.spill, metadata !2043, metadata !DIExpression()), !dbg !2038
  store i8 1, ptr %order.dbg.spill, align 1, !dbg !2046
  call void @llvm.dbg.declare(metadata ptr %order.dbg.spill, metadata !2044, metadata !DIExpression()), !dbg !2046
  store i64 1, ptr %val.dbg.spill1, align 8, !dbg !2047
  call void @llvm.dbg.declare(metadata ptr %val.dbg.spill1, metadata !2052, metadata !DIExpression()), !dbg !2047
  store i8 1, ptr %order.dbg.spill2, align 1, !dbg !2055
  call void @llvm.dbg.declare(metadata ptr %order.dbg.spill2, metadata !2053, metadata !DIExpression()), !dbg !2055
  store i8 2, ptr %order.dbg.spill3, align 1, !dbg !2056
  call void @llvm.dbg.declare(metadata ptr %order.dbg.spill3, metadata !2060, metadata !DIExpression()), !dbg !2056
  store ptr @alloc_39071d8363362e29009d9bb27c1e4df5, ptr %pieces.dbg.spill, align 8, !dbg !2062
  call void @llvm.dbg.declare(metadata ptr %pieces.dbg.spill, metadata !2066, metadata !DIExpression()), !dbg !2062
  store ptr @alloc_a865d543e3f23b106342c3b86278cef3, ptr %pieces.dbg.spill4, align 8, !dbg !2071
  call void @llvm.dbg.declare(metadata ptr %pieces.dbg.spill4, metadata !2067, metadata !DIExpression()), !dbg !2071
  store ptr %self, ptr %self.dbg.spill, align 8, !dbg !2071
  call void @llvm.dbg.declare(metadata ptr %self.dbg.spill, metadata !2037, metadata !DIExpression()), !dbg !2074
  call void @llvm.dbg.declare(metadata ptr %self.dbg.spill, metadata !2075, metadata !DIExpression()), !dbg !2084
  store ptr %self, ptr %self.dbg.spill5, align 8, !dbg !2086
  call void @llvm.dbg.declare(metadata ptr %self.dbg.spill5, metadata !2087, metadata !DIExpression()), !dbg !2095
  %self6 = load ptr, ptr %self, align 8, !dbg !2097
  store ptr %self6, ptr %self.dbg.spill7, align 8, !dbg !2097
  call void @llvm.dbg.declare(metadata ptr %self.dbg.spill7, metadata !2098, metadata !DIExpression()), !dbg !2108
  store ptr %self6, ptr %self.dbg.spill8, align 8, !dbg !2110
  call void @llvm.dbg.declare(metadata ptr %self.dbg.spill8, metadata !2111, metadata !DIExpression()), !dbg !2117
  store ptr %self6, ptr %self.dbg.spill9, align 8, !dbg !2119
  call void @llvm.dbg.declare(metadata ptr %self.dbg.spill9, metadata !2042, metadata !DIExpression()), !dbg !2120
  store ptr %self6, ptr %self.dbg.spill10, align 8, !dbg !2121
  call void @llvm.dbg.declare(metadata ptr %self.dbg.spill10, metadata !2122, metadata !DIExpression()), !dbg !2126
  store ptr %self6, ptr %dst.dbg.spill, align 8, !dbg !2128
  call void @llvm.dbg.declare(metadata ptr %dst.dbg.spill, metadata !2051, metadata !DIExpression()), !dbg !2129
  %1 = atomicrmw sub ptr %self6, i64 1 release, align 8, !dbg !2130
  store i64 %1, ptr %0, align 8, !dbg !2130
  %_2 = load i64, ptr %0, align 8, !dbg !2130
  %2 = icmp eq i64 %_2, 1, !dbg !2119
  br i1 %2, label %bb2, label %bb1, !dbg !2119

bb2:                                              ; preds = %start
  fence acquire, !dbg !2131
  call fastcc void @"_ZN5alloc4sync16Arc$LT$T$C$A$GT$9drop_slow17hcc4f086bf8534780E"(ptr align 8 %self) #20, !dbg !2132
  br label %bb3, !dbg !2132

bb1:                                              ; preds = %start
  br label %bb3, !dbg !2133

bb3:                                              ; preds = %bb1, %bb2
  ret void, !dbg !2133
}

; Function Attrs: noinline nounwind nonlazybind
define internal fastcc void @"_ZN5alloc4sync16Arc$LT$T$C$A$GT$9drop_slow17hcc4f086bf8534780E"(ptr align 8 %self) unnamed_addr #4 !dbg !2134 {
start:
  %_x = alloca [16 x i8], align 8
  call void @llvm.dbg.declare(metadata ptr poison, metadata !2137, metadata !DIExpression()), !dbg !2138
  call void @llvm.dbg.declare(metadata ptr poison, metadata !2139, metadata !DIExpression()), !dbg !2147
  call void @llvm.dbg.declare(metadata ptr %_x, metadata !2149, metadata !DIExpression()), !dbg !2162
  %self1 = load ptr, ptr %self, align 8, !dbg !2164
  call void @llvm.dbg.declare(metadata ptr poison, metadata !2165, metadata !DIExpression()), !dbg !2169
  %_3 = getelementptr inbounds i8, ptr %self1, i64 16, !dbg !2148
  call fastcc void @"_ZN4core3ptr39drop_in_place$LT$std..thread..Inner$GT$17h1fc8ca44b88cce3eE"(ptr align 8 %_3) #20, !dbg !2171
  %_5 = load ptr, ptr %self, align 8, !dbg !2172
  %_6 = getelementptr inbounds i8, ptr %self, i64 8, !dbg !2173
  store ptr %_5, ptr %_x, align 8, !dbg !2174
  %0 = getelementptr inbounds i8, ptr %_x, i64 8, !dbg !2174
  store ptr %_6, ptr %0, align 8, !dbg !2174
  call fastcc void @"_ZN4core3ptr91drop_in_place$LT$alloc..sync..Weak$LT$std..thread..Inner$C$$RF$alloc..alloc..Global$GT$$GT$17h3e9f86e9fcc059a5E"(ptr align 8 %_x) #20, !dbg !2175
  ret void, !dbg !2176
}

; Function Attrs: alwaysinline nounwind nonlazybind
define internal fastcc void @"_ZN4core3ptr39drop_in_place$LT$std..thread..Inner$GT$17h1fc8ca44b88cce3eE"(ptr align 8 %_1) unnamed_addr #3 !dbg !2177 {
start:
  call void @llvm.dbg.declare(metadata ptr poison, metadata !2182, metadata !DIExpression()), !dbg !2183
  call fastcc void @"_ZN4core3ptr44drop_in_place$LT$std..thread..ThreadName$GT$17hef0a0fd3948e4e19E"(ptr align 8 %_1) #20, !dbg !2183
  ret void, !dbg !2183
}

; Function Attrs: alwaysinline nounwind nonlazybind
define internal fastcc void @"_ZN4core3ptr91drop_in_place$LT$alloc..sync..Weak$LT$std..thread..Inner$C$$RF$alloc..alloc..Global$GT$$GT$17h3e9f86e9fcc059a5E"(ptr align 8 %_1) unnamed_addr #3 !dbg !2184 {
start:
  call void @llvm.dbg.declare(metadata ptr poison, metadata !2189, metadata !DIExpression()), !dbg !2190
  call fastcc void @"_ZN72_$LT$alloc..sync..Weak$LT$T$C$A$GT$$u20$as$u20$core..ops..drop..Drop$GT$4drop17h048edff9af608affE"(ptr align 8 %_1) #20, !dbg !2190
  ret void, !dbg !2190
}

; Function Attrs: alwaysinline nounwind nonlazybind
define internal fastcc void @"_ZN72_$LT$alloc..sync..Weak$LT$T$C$A$GT$$u20$as$u20$core..ops..drop..Drop$GT$4drop17h048edff9af608affE"(ptr align 8 %self) unnamed_addr #3 !dbg !2191 {
start:
  %0 = alloca [8 x i8], align 8
  %1 = alloca [8 x i8], align 8
  %2 = alloca [8 x i8], align 8
  %dst.dbg.spill = alloca [8 x i8], align 8
  %self.dbg.spill11 = alloca [8 x i8], align 8
  %inner.dbg.spill10 = alloca [8 x i8], align 8
  %inner.dbg.spill = alloca [8 x i8], align 8
  %self.dbg.spill8 = alloca [8 x i8], align 8
  %ptr.dbg.spill7 = alloca [8 x i8], align 8
  %ptr.dbg.spill = alloca [8 x i8], align 8
  %self.dbg.spill6 = alloca [8 x i8], align 8
  %self.dbg.spill = alloca [8 x i8], align 8
  %_2 = alloca [16 x i8], align 8
  %pieces.dbg.spill4 = alloca [8 x i8], align 8
  %pieces.dbg.spill = alloca [8 x i8], align 8
  %order.dbg.spill3 = alloca [1 x i8], align 1
  %order.dbg.spill2 = alloca [1 x i8], align 1
  %val.dbg.spill1 = alloca [8 x i8], align 8
  %order.dbg.spill = alloca [1 x i8], align 1
  %val.dbg.spill = alloca [8 x i8], align 8
  store i64 1, ptr %val.dbg.spill, align 8, !dbg !2201
  call void @llvm.dbg.declare(metadata ptr %val.dbg.spill, metadata !2206, metadata !DIExpression()), !dbg !2201
  store i8 1, ptr %order.dbg.spill, align 1, !dbg !2209
  call void @llvm.dbg.declare(metadata ptr %order.dbg.spill, metadata !2207, metadata !DIExpression()), !dbg !2209
  store i64 1, ptr %val.dbg.spill1, align 8, !dbg !2210
  call void @llvm.dbg.declare(metadata ptr %val.dbg.spill1, metadata !2215, metadata !DIExpression()), !dbg !2210
  store i8 1, ptr %order.dbg.spill2, align 1, !dbg !2218
  call void @llvm.dbg.declare(metadata ptr %order.dbg.spill2, metadata !2216, metadata !DIExpression()), !dbg !2218
  store i8 2, ptr %order.dbg.spill3, align 1, !dbg !2219
  call void @llvm.dbg.declare(metadata ptr %order.dbg.spill3, metadata !2223, metadata !DIExpression()), !dbg !2219
  store ptr @alloc_39071d8363362e29009d9bb27c1e4df5, ptr %pieces.dbg.spill, align 8, !dbg !2225
  call void @llvm.dbg.declare(metadata ptr %pieces.dbg.spill, metadata !2229, metadata !DIExpression()), !dbg !2225
  store ptr @alloc_2efc6b3f377c1fc49b12e3ac5ad67ebd, ptr %pieces.dbg.spill4, align 8, !dbg !2234
  call void @llvm.dbg.declare(metadata ptr %pieces.dbg.spill4, metadata !2230, metadata !DIExpression()), !dbg !2234
  store ptr %self, ptr %self.dbg.spill, align 8, !dbg !2234
  call void @llvm.dbg.declare(metadata ptr %self.dbg.spill, metadata !2196, metadata !DIExpression()), !dbg !2237
  call void @llvm.dbg.declare(metadata ptr %self.dbg.spill, metadata !2238, metadata !DIExpression()), !dbg !2248
  %self5 = load ptr, ptr %self, align 8, !dbg !2250
  store ptr %self5, ptr %self.dbg.spill6, align 8, !dbg !2250
  call void @llvm.dbg.declare(metadata ptr %self.dbg.spill6, metadata !2251, metadata !DIExpression()), !dbg !2261
  store ptr %self5, ptr %ptr.dbg.spill, align 8, !dbg !2263
  call void @llvm.dbg.declare(metadata ptr %ptr.dbg.spill, metadata !2264, metadata !DIExpression()), !dbg !2270
  call void @llvm.dbg.declare(metadata ptr %ptr.dbg.spill, metadata !2272, metadata !DIExpression()), !dbg !2279
  store ptr %self5, ptr %ptr.dbg.spill7, align 8, !dbg !2263
  call void @llvm.dbg.declare(metadata ptr %ptr.dbg.spill7, metadata !2246, metadata !DIExpression()), !dbg !2281
  store ptr %self5, ptr %self.dbg.spill8, align 8, !dbg !2282
  call void @llvm.dbg.declare(metadata ptr %self.dbg.spill8, metadata !2283, metadata !DIExpression()), !dbg !2287
  call void @llvm.dbg.declare(metadata ptr %self.dbg.spill8, metadata !2289, metadata !DIExpression()), !dbg !2293
  %_20 = ptrtoint ptr %self5 to i64, !dbg !2295
  %_15 = icmp eq i64 %_20, -1, !dbg !2296
  br i1 %_15, label %bb6, label %bb7, !dbg !2271

bb7:                                              ; preds = %start
  %_18 = getelementptr inbounds i8, ptr %self5, i64 8, !dbg !2297
  store ptr %_18, ptr %_2, align 8, !dbg !2298
  %3 = getelementptr inbounds i8, ptr %_2, i64 8, !dbg !2298
  store ptr %self5, ptr %3, align 8, !dbg !2298
  %inner = load ptr, ptr %_2, align 8, !dbg !2299
  store ptr %inner, ptr %inner.dbg.spill, align 8, !dbg !2299
  call void @llvm.dbg.declare(metadata ptr %inner.dbg.spill, metadata !2197, metadata !DIExpression(DW_OP_LLVM_fragment, 0, 64)), !dbg !2300
  call void @llvm.dbg.declare(metadata ptr %inner.dbg.spill, metadata !2199, metadata !DIExpression(DW_OP_LLVM_fragment, 0, 64)), !dbg !2299
  call void @llvm.dbg.declare(metadata ptr %inner.dbg.spill, metadata !2205, metadata !DIExpression()), !dbg !2301
  %4 = getelementptr inbounds i8, ptr %_2, i64 8, !dbg !2299
  %inner9 = load ptr, ptr %4, align 8, !dbg !2299
  store ptr %inner9, ptr %inner.dbg.spill10, align 8, !dbg !2299
  call void @llvm.dbg.declare(metadata ptr %inner.dbg.spill10, metadata !2197, metadata !DIExpression(DW_OP_LLVM_fragment, 64, 64)), !dbg !2300
  call void @llvm.dbg.declare(metadata ptr %inner.dbg.spill10, metadata !2199, metadata !DIExpression(DW_OP_LLVM_fragment, 64, 64)), !dbg !2299
  store ptr %inner, ptr %self.dbg.spill11, align 8, !dbg !2302
  call void @llvm.dbg.declare(metadata ptr %self.dbg.spill11, metadata !2303, metadata !DIExpression()), !dbg !2307
  store ptr %inner, ptr %dst.dbg.spill, align 8, !dbg !2309
  call void @llvm.dbg.declare(metadata ptr %dst.dbg.spill, metadata !2214, metadata !DIExpression()), !dbg !2310
  %5 = atomicrmw sub ptr %inner, i64 1 release, align 8, !dbg !2311
  store i64 %5, ptr %2, align 8, !dbg !2311
  %_3 = load i64, ptr %2, align 8, !dbg !2311
  %6 = icmp eq i64 %_3, 1, !dbg !2312
  br i1 %6, label %bb1, label %bb3, !dbg !2312

bb6:                                              ; preds = %start
  br label %bb5, !dbg !2313

bb1:                                              ; preds = %bb7
  fence acquire, !dbg !2314
  %_8 = getelementptr inbounds i8, ptr %self, i64 8, !dbg !2315
  %self12 = load ptr, ptr %self, align 8, !dbg !2316
  call void @llvm.dbg.declare(metadata ptr poison, metadata !2317, metadata !DIExpression()), !dbg !2325
  call void @llvm.dbg.declare(metadata ptr poison, metadata !2257, metadata !DIExpression()), !dbg !2327
  call void @llvm.dbg.declare(metadata ptr poison, metadata !2259, metadata !DIExpression()), !dbg !2329
  call void @llvm.dbg.declare(metadata ptr poison, metadata !2331, metadata !DIExpression()), !dbg !2341
  call void @llvm.dbg.declare(metadata ptr poison, metadata !2343, metadata !DIExpression()), !dbg !2349
  call void @llvm.dbg.declare(metadata ptr poison, metadata !2351, metadata !DIExpression()), !dbg !2355
  store i64 56, ptr %1, align 8, !dbg !2357
  %size = load i64, ptr %1, align 8, !dbg !2357
  call void @llvm.dbg.declare(metadata ptr poison, metadata !2338, metadata !DIExpression()), !dbg !2358
  call void @llvm.dbg.declare(metadata ptr poison, metadata !2359, metadata !DIExpression()), !dbg !2364
  store i64 8, ptr %0, align 8, !dbg !2366
  %align = load i64, ptr %0, align 8, !dbg !2366
  call void @llvm.dbg.declare(metadata ptr poison, metadata !2340, metadata !DIExpression()), !dbg !2367
  call void @llvm.dbg.declare(metadata ptr poison, metadata !2363, metadata !DIExpression()), !dbg !2368
  call void @llvm.dbg.declare(metadata ptr poison, metadata !2369, metadata !DIExpression()), !dbg !2373
  call fastcc void @"_ZN48_$LT$$RF$A$u20$as$u20$core..alloc..Allocator$GT$10deallocate17h0f53f72c32059d76E"(ptr align 8 %_8, ptr %self12, i64 %align, i64 %size) #20, !dbg !2315
  br label %bb4, !dbg !2375

bb3:                                              ; preds = %bb7
  br label %bb4, !dbg !2375

bb4:                                              ; preds = %bb3, %bb1
  br label %bb5, !dbg !2313

bb5:                                              ; preds = %bb4, %bb6
  ret void, !dbg !2313
}

; Function Attrs: alwaysinline nounwind nonlazybind
define internal fastcc void @"_ZN4core3ptr44drop_in_place$LT$std..thread..ThreadName$GT$17hef0a0fd3948e4e19E"(ptr align 8 %_1) unnamed_addr #3 !dbg !2376 {
start:
  call void @llvm.dbg.declare(metadata ptr poison, metadata !2381, metadata !DIExpression()), !dbg !2384
  %_2 = load i64, ptr %_1, align 8, !dbg !2384
  %cond = icmp eq i64 %_2, 1, !dbg !2384
  br i1 %cond, label %bb2, label %bb1, !dbg !2384

bb1:                                              ; preds = %bb2, %start
  ret void, !dbg !2384

bb2:                                              ; preds = %start
  %0 = getelementptr inbounds i8, ptr %_1, i64 8, !dbg !2384
  call fastcc void @"_ZN4core3ptr70drop_in_place$LT$std..thread..thread_name_string..ThreadNameString$GT$17h85abd3d058166849E"(ptr align 8 %0) #20, !dbg !2384
  br label %bb1, !dbg !2384
}

; Function Attrs: alwaysinline nounwind nonlazybind
define internal fastcc void @"_ZN4core3ptr70drop_in_place$LT$std..thread..thread_name_string..ThreadNameString$GT$17h85abd3d058166849E"(ptr align 8 %_1) unnamed_addr #3 !dbg !2385 {
start:
  call void @llvm.dbg.declare(metadata ptr poison, metadata !2390, metadata !DIExpression()), !dbg !2393
  call fastcc void @"_ZN4core3ptr47drop_in_place$LT$alloc..ffi..c_str..CString$GT$17hf94be1708948c8e5E"(ptr align 8 %_1) #20, !dbg !2393
  ret void, !dbg !2393
}

; Function Attrs: alwaysinline nounwind nonlazybind
define internal fastcc void @"_ZN4core3ptr47drop_in_place$LT$alloc..ffi..c_str..CString$GT$17hf94be1708948c8e5E"(ptr align 8 %_1) unnamed_addr #3 !dbg !2394 {
start:
  call void @llvm.dbg.declare(metadata ptr poison, metadata !2399, metadata !DIExpression()), !dbg !2402
  call fastcc void @"_ZN68_$LT$alloc..ffi..c_str..CString$u20$as$u20$core..ops..drop..Drop$GT$4drop17h1b1e22dc735d4ee8E"(ptr align 8 %_1) #20, !dbg !2402
  call fastcc void @"_ZN4core3ptr58drop_in_place$LT$alloc..boxed..Box$LT$$u5b$u8$u5d$$GT$$GT$17hbcb658cbd05f9744E"(ptr align 8 %_1) #20, !dbg !2402
  ret void, !dbg !2402
}

; Function Attrs: inlinehint nounwind nonlazybind
define internal fastcc void @"_ZN68_$LT$alloc..ffi..c_str..CString$u20$as$u20$core..ops..drop..Drop$GT$4drop17h1b1e22dc735d4ee8E"(ptr align 8 %self) unnamed_addr #5 !dbg !2403 {
start:
  call void @llvm.dbg.declare(metadata ptr poison, metadata !2411, metadata !DIExpression()), !dbg !2432
  call void @llvm.dbg.declare(metadata ptr poison, metadata !2434, metadata !DIExpression()), !dbg !2448
  call void @llvm.dbg.declare(metadata ptr poison, metadata !2450, metadata !DIExpression()), !dbg !2459
  call void @llvm.dbg.declare(metadata ptr poison, metadata !2410, metadata !DIExpression()), !dbg !2461
  %_2.0 = load ptr, ptr %self, align 8, !dbg !2462
  %0 = getelementptr inbounds i8, ptr %self, i64 8, !dbg !2462
  %_2.1 = load i64, ptr %0, align 8, !dbg !2462
  call void @llvm.dbg.declare(metadata ptr poison, metadata !2425, metadata !DIExpression()), !dbg !2463
  call void @llvm.dbg.declare(metadata ptr poison, metadata !2447, metadata !DIExpression()), !dbg !2464
  call void @llvm.dbg.declare(metadata ptr poison, metadata !2465, metadata !DIExpression()), !dbg !2472
  call void @llvm.dbg.declare(metadata ptr poison, metadata !2456, metadata !DIExpression()), !dbg !2474
  br label %bb1, !dbg !2475

bb1:                                              ; preds = %start
  call void @llvm.dbg.declare(metadata ptr poison, metadata !2478, metadata !DIExpression()), !dbg !2486
  call fastcc void @"_ZN75_$LT$usize$u20$as$u20$core..slice..index..SliceIndex$LT$$u5b$T$u5d$$GT$$GT$17get_unchecked_mut18precondition_check17ha497c3ccf7b2b789E"(i64 0, i64 %_2.1) #20, !dbg !2488
  br label %bb3, !dbg !2489

bb3:                                              ; preds = %bb1
  call void @llvm.dbg.declare(metadata ptr poison, metadata !2457, metadata !DIExpression()), !dbg !2490
  store i8 0, ptr %_2.0, align 1, !dbg !2491
  ret void, !dbg !2492
}

; Function Attrs: alwaysinline nounwind nonlazybind
define internal fastcc void @"_ZN4core3ptr58drop_in_place$LT$alloc..boxed..Box$LT$$u5b$u8$u5d$$GT$$GT$17hbcb658cbd05f9744E"(ptr align 8 %_1) unnamed_addr #3 !dbg !2493 {
start:
  call void @llvm.dbg.declare(metadata ptr poison, metadata !2498, metadata !DIExpression()), !dbg !2501
  %0 = getelementptr inbounds i8, ptr %_1, i64 8, !dbg !2501
  call fastcc void @"_ZN72_$LT$alloc..boxed..Box$LT$T$C$A$GT$$u20$as$u20$core..ops..drop..Drop$GT$4drop17hff830984538acc6aE"(ptr align 8 %_1) #20, !dbg !2501
  ret void, !dbg !2501
}

; Function Attrs: inlinehint nounwind nonlazybind
define internal fastcc void @"_ZN72_$LT$alloc..boxed..Box$LT$T$C$A$GT$$u20$as$u20$core..ops..drop..Drop$GT$4drop17hff830984538acc6aE"(ptr align 8 %self) unnamed_addr #5 !dbg !2502 {
start:
  %0 = alloca [8 x i8], align 8
  %1 = alloca [8 x i8], align 8
  %layout = alloca [16 x i8], align 8
  call void @llvm.dbg.declare(metadata ptr poison, metadata !2507, metadata !DIExpression()), !dbg !2520
  call void @llvm.dbg.declare(metadata ptr %layout, metadata !2518, metadata !DIExpression()), !dbg !2521
  %ptr.0 = load ptr, ptr %self, align 8, !dbg !2522
  %2 = getelementptr inbounds i8, ptr %self, i64 8, !dbg !2522
  %ptr.1 = load i64, ptr %2, align 8, !dbg !2523
  call void @llvm.dbg.declare(metadata ptr poison, metadata !2508, metadata !DIExpression()), !dbg !2540
  call void @llvm.dbg.declare(metadata ptr poison, metadata !2541, metadata !DIExpression()), !dbg !2548
  call void @llvm.dbg.declare(metadata ptr poison, metadata !2550, metadata !DIExpression()), !dbg !2559
  call void @llvm.dbg.declare(metadata ptr poison, metadata !2561, metadata !DIExpression()), !dbg !2569
  call void @llvm.dbg.declare(metadata ptr poison, metadata !2571, metadata !DIExpression()), !dbg !2578
  call void @llvm.dbg.declare(metadata ptr poison, metadata !2557, metadata !DIExpression()), !dbg !2580
  call void @llvm.dbg.declare(metadata ptr poison, metadata !2535, metadata !DIExpression()), !dbg !2582
  call void @llvm.dbg.declare(metadata ptr poison, metadata !2527, metadata !DIExpression()), !dbg !2583
  call void @llvm.dbg.declare(metadata ptr poison, metadata !2584, metadata !DIExpression()), !dbg !2588
  store i64 %ptr.1, ptr %1, align 8, !dbg !2523
  %size = load i64, ptr %1, align 8, !dbg !2523
  call void @llvm.dbg.declare(metadata ptr poison, metadata !2536, metadata !DIExpression()), !dbg !2590
  call void @llvm.dbg.declare(metadata ptr poison, metadata !2591, metadata !DIExpression()), !dbg !2596
  store i64 1, ptr %0, align 8, !dbg !2598
  %align = load i64, ptr %0, align 8, !dbg !2598
  call void @llvm.dbg.declare(metadata ptr poison, metadata !2538, metadata !DIExpression()), !dbg !2599
  call void @llvm.dbg.declare(metadata ptr poison, metadata !2595, metadata !DIExpression()), !dbg !2600
  call void @llvm.dbg.declare(metadata ptr poison, metadata !2601, metadata !DIExpression()), !dbg !2605
  %3 = getelementptr inbounds i8, ptr %layout, i64 8, !dbg !2607
  store i64 %size, ptr %3, align 8, !dbg !2607
  store i64 %align, ptr %layout, align 8, !dbg !2607
  call void @llvm.dbg.declare(metadata ptr poison, metadata !2608, metadata !DIExpression()), !dbg !2612
  %4 = icmp eq i64 %size, 0, !dbg !2614
  br i1 %4, label %bb3, label %bb1, !dbg !2614

bb3:                                              ; preds = %bb1, %start
  ret void, !dbg !2615

bb1:                                              ; preds = %start
  %_5 = getelementptr inbounds i8, ptr %self, i64 16, !dbg !2616
  call void @llvm.dbg.declare(metadata ptr poison, metadata !2617, metadata !DIExpression()), !dbg !2621
  call void @llvm.dbg.declare(metadata ptr poison, metadata !2623, metadata !DIExpression()), !dbg !2627
  %5 = load i64, ptr %layout, align 8, !dbg !2616
  %6 = getelementptr inbounds i8, ptr %layout, i64 8, !dbg !2616
  %7 = load i64, ptr %6, align 8, !dbg !2616
  call fastcc void @"_ZN63_$LT$alloc..alloc..Global$u20$as$u20$core..alloc..Allocator$GT$10deallocate17h11895959db45ce84E"(ptr align 1 %_5, ptr %ptr.0, i64 %5, i64 %7) #20, !dbg !2616
  br label %bb3, !dbg !2629
}

; Function Attrs: inlinehint nounwind nonlazybind
define internal fastcc void @"_ZN75_$LT$usize$u20$as$u20$core..slice..index..SliceIndex$LT$$u5b$T$u5d$$GT$$GT$17get_unchecked_mut18precondition_check17ha497c3ccf7b2b789E"(i64 %this, i64 %len) unnamed_addr #5 !dbg !2630 {
start:
  call void @llvm.dbg.declare(metadata ptr poison, metadata !2635, metadata !DIExpression()), !dbg !2637
  call void @llvm.dbg.declare(metadata ptr poison, metadata !2636, metadata !DIExpression()), !dbg !2637
  %_3 = icmp ult i64 0, %len, !dbg !2638
  br i1 %_3, label %bb1, label %bb2, !dbg !2638

bb2:                                              ; preds = %start
  call void @_ZN4core9panicking14panic_nounwind17h26138b2b42fa1f60E(ptr align 1 @alloc_e96fb6e25c55edb0aec8b24d111f5d7f, i64 101) #21, !dbg !2640
  unreachable, !dbg !2640

bb1:                                              ; preds = %start
  ret void, !dbg !2641
}

; Function Attrs: cold noinline noreturn nounwind nonlazybind
declare void @_ZN4core9panicking14panic_nounwind17h26138b2b42fa1f60E(ptr align 1, i64) unnamed_addr #7

; Function Attrs: alwaysinline nounwind nonlazybind
define internal fastcc void @"_ZN77_$LT$std..sys..pal..unix..thread..Thread$u20$as$u20$core..ops..drop..Drop$GT$4drop17h1611cee509873bb8E"(ptr align 8 %self) unnamed_addr #3 !dbg !2642 {
start:
  call void @llvm.dbg.declare(metadata ptr poison, metadata !2656, metadata !DIExpression()), !dbg !2660
  call void @llvm.dbg.declare(metadata ptr poison, metadata !2657, metadata !DIExpression()), !dbg !2661
  call void @llvm.dbg.declare(metadata ptr poison, metadata !2649, metadata !DIExpression()), !dbg !2662
  %_3 = load i64, ptr %self, align 8, !dbg !2663
  %ret = call i32 @pthread_detach(i64 %_3) #20, !dbg !2664
  call void @llvm.dbg.declare(metadata ptr poison, metadata !2650, metadata !DIExpression()), !dbg !2665
  ret void, !dbg !2666
}

; Function Attrs: nocallback nofree nounwind willreturn memory(argmem: readwrite)
declare void @llvm.memcpy.p0.p0.i64(ptr noalias nocapture writeonly, ptr noalias nocapture readonly, i64, i1 immarg) #8

; Function Attrs: noinline nounwind nonlazybind
define internal fastcc void @_ZN3std6thread7Builder15spawn_unchecked17he74b18926535d160E(ptr noalias align 8 %_0, ptr align 1 %self) unnamed_addr #4 !dbg !2667 {
start:
  %_11 = alloca [8 x i8], align 8
  %v = alloca [24 x i8], align 8
  %val = alloca [24 x i8], align 8
  %residual = alloca [8 x i8], align 8
  %self1 = alloca [24 x i8], align 8
  %_4 = alloca [24 x i8], align 8
  call void @llvm.dbg.declare(metadata ptr %self, metadata !2670, metadata !DIExpression()), !dbg !2694
  call void @llvm.dbg.declare(metadata ptr poison, metadata !2671, metadata !DIExpression()), !dbg !2695
  call void @llvm.dbg.declare(metadata ptr %self1, metadata !2696, metadata !DIExpression()), !dbg !2740
  call void @llvm.dbg.declare(metadata ptr %residual, metadata !2672, metadata !DIExpression()), !dbg !2742
  call void @llvm.dbg.declare(metadata ptr %residual, metadata !2743, metadata !DIExpression()), !dbg !2762
  call void @llvm.dbg.declare(metadata ptr %val, metadata !2692, metadata !DIExpression()), !dbg !2764
  call void @llvm.dbg.declare(metadata ptr %v, metadata !2736, metadata !DIExpression()), !dbg !2765
  call fastcc void @_ZN3std6thread7Builder16spawn_unchecked_17h36195cf70baac126E(ptr noalias align 8 %self1, ptr align 1 %self) #20, !dbg !2766
  %0 = load ptr, ptr %self1, align 8, !dbg !2767
  %1 = ptrtoint ptr %0 to i64, !dbg !2767
  %2 = icmp eq i64 %1, 0, !dbg !2767
  %_8 = select i1 %2, i64 1, i64 0, !dbg !2767
  %3 = icmp eq i64 %_8, 0, !dbg !2768
  br i1 %3, label %bb5, label %bb4, !dbg !2768

bb5:                                              ; preds = %start
  call void @llvm.memcpy.p0.p0.i64(ptr align 8 %_0, ptr align 8 %self1, i64 24, i1 false), !dbg !2769
  br label %bb3, !dbg !2770

bb4:                                              ; preds = %start
  %4 = getelementptr inbounds i8, ptr %self1, i64 8, !dbg !2771
  %e = load ptr, ptr %4, align 8, !dbg !2771
  call void @llvm.dbg.declare(metadata ptr poison, metadata !2738, metadata !DIExpression()), !dbg !2772
  store ptr %e, ptr %_11, align 8, !dbg !2773
  %5 = load ptr, ptr %_11, align 8, !dbg !2774
  %6 = getelementptr inbounds i8, ptr %_4, i64 8, !dbg !2774
  store ptr %5, ptr %6, align 8, !dbg !2774
  %7 = getelementptr inbounds i8, ptr %_4, i64 8, !dbg !2775
  %8 = load ptr, ptr %7, align 8, !dbg !2775
  store ptr %8, ptr %residual, align 8, !dbg !2775
  %e2 = load ptr, ptr %residual, align 8, !dbg !2776
  call void @llvm.dbg.declare(metadata ptr poison, metadata !2758, metadata !DIExpression()), !dbg !2777
  call void @llvm.dbg.declare(metadata ptr poison, metadata !2778, metadata !DIExpression()), !dbg !2788
  %9 = getelementptr inbounds i8, ptr %_0, i64 8, !dbg !2790
  store ptr %e2, ptr %9, align 8, !dbg !2790
  store ptr null, ptr %_0, align 8, !dbg !2790
  br label %bb3, !dbg !2770

bb3:                                              ; preds = %bb4, %bb5
  ret void, !dbg !2791
}

; Function Attrs: inlinehint nounwind nonlazybind
define internal fastcc void @"_ZN4core6result19Result$LT$T$C$E$GT$6expect17h80313a89d93bdfe7E"(ptr noalias align 8 %t, ptr align 8 %self, i64 %msg.1) unnamed_addr #5 personality ptr @rust_eh_personality !dbg !2792 {
start:
  %e = alloca [8 x i8], align 8
  call void @llvm.dbg.declare(metadata ptr %t, metadata !2799, metadata !DIExpression()), !dbg !2803
  call void @llvm.dbg.declare(metadata ptr %self, metadata !2797, metadata !DIExpression()), !dbg !2804
  call void @llvm.dbg.declare(metadata ptr poison, metadata !2798, metadata !DIExpression()), !dbg !2805
  call void @llvm.dbg.declare(metadata ptr %e, metadata !2801, metadata !DIExpression()), !dbg !2806
  %0 = load ptr, ptr %self, align 8, !dbg !2807
  %1 = ptrtoint ptr %0 to i64, !dbg !2807
  %2 = icmp eq i64 %1, 0, !dbg !2807
  %_3 = select i1 %2, i64 1, i64 0, !dbg !2807
  %3 = icmp eq i64 %_3, 0, !dbg !2808
  br i1 %3, label %bb3, label %bb2, !dbg !2808

bb3:                                              ; preds = %start
  call void @llvm.memcpy.p0.p0.i64(ptr align 8 %t, ptr align 8 %self, i64 24, i1 false), !dbg !2809
  ret void, !dbg !2810

bb2:                                              ; preds = %start
  %4 = getelementptr inbounds i8, ptr %self, i64 8, !dbg !2811
  %5 = load ptr, ptr %4, align 8, !dbg !2811
  store ptr %5, ptr %e, align 8, !dbg !2811
  call fastcc void @_ZN4core6result13unwrap_failed17h3b20393b00590665E(ptr align 1 @alloc_e3605bf48dd8479a638909176cc37fce, i64 22, ptr align 1 %e, ptr align 8 @vtable.1, ptr align 8 @alloc_5d9d3b2b9a47864ed032a0e2d3927776) #21, !dbg !2812
  unreachable, !dbg !2812
}

; Function Attrs: nounwind nonlazybind
declare i32 @rust_eh_personality(i32, i32, i64, ptr, ptr) unnamed_addr #2

; Function Attrs: alwaysinline cold noreturn nounwind nonlazybind
define internal fastcc void @_ZN4core6result13unwrap_failed17h3b20393b00590665E(ptr align 1 %0, i64 %1, ptr align 1 %2, ptr align 8 %3, ptr align 8 %4) unnamed_addr #9 !dbg !2813 {
start:
  %_19 = alloca [16 x i8], align 8
  %_12 = alloca [16 x i8], align 8
  %_6 = alloca [32 x i8], align 8
  %_4 = alloca [48 x i8], align 8
  %error = alloca [16 x i8], align 8
  %msg = alloca [16 x i8], align 8
  call void @llvm.dbg.declare(metadata ptr poison, metadata !2825, metadata !DIExpression()), !dbg !2839
  store ptr %0, ptr %msg, align 8, !dbg !2839
  %5 = getelementptr inbounds i8, ptr %msg, i64 8, !dbg !2839
  store i64 %1, ptr %5, align 8, !dbg !2839
  store ptr %2, ptr %error, align 8, !dbg !2839
  %6 = getelementptr inbounds i8, ptr %error, i64 8, !dbg !2839
  store ptr %3, ptr %6, align 8, !dbg !2839
  call void @llvm.dbg.declare(metadata ptr %msg, metadata !2823, metadata !DIExpression()), !dbg !2842
  call void @llvm.dbg.declare(metadata ptr %error, metadata !2824, metadata !DIExpression()), !dbg !2843
  call void @llvm.dbg.declare(metadata ptr poison, metadata !2844, metadata !DIExpression()), !dbg !2855
  call void @llvm.dbg.declare(metadata ptr poison, metadata !2857, metadata !DIExpression()), !dbg !2868
  call void @llvm.dbg.declare(metadata ptr poison, metadata !2870, metadata !DIExpression()), !dbg !2881
  call void @llvm.dbg.declare(metadata ptr poison, metadata !2867, metadata !DIExpression()), !dbg !2883
  call void @llvm.dbg.declare(metadata ptr poison, metadata !2884, metadata !DIExpression()), !dbg !2892
  call void @llvm.dbg.declare(metadata ptr poison, metadata !2894, metadata !DIExpression()), !dbg !2902
  store ptr %msg, ptr %_12, align 8, !dbg !2904
  %7 = getelementptr inbounds i8, ptr %_12, i64 8, !dbg !2904
  store ptr @"_ZN44_$LT$$RF$T$u20$as$u20$core..fmt..Display$GT$3fmt17hacf6a36319c119b5E", ptr %7, align 8, !dbg !2904
  call void @llvm.dbg.declare(metadata ptr poison, metadata !2905, metadata !DIExpression()), !dbg !2915
  call void @llvm.dbg.declare(metadata ptr poison, metadata !2917, metadata !DIExpression()), !dbg !2928
  call void @llvm.dbg.declare(metadata ptr poison, metadata !2930, metadata !DIExpression()), !dbg !2940
  call void @llvm.dbg.declare(metadata ptr poison, metadata !2927, metadata !DIExpression()), !dbg !2942
  call void @llvm.dbg.declare(metadata ptr poison, metadata !2943, metadata !DIExpression()), !dbg !2951
  call void @llvm.dbg.declare(metadata ptr poison, metadata !2953, metadata !DIExpression()), !dbg !2961
  store ptr %error, ptr %_19, align 8, !dbg !2963
  %8 = getelementptr inbounds i8, ptr %_19, i64 8, !dbg !2963
  store ptr @"_ZN42_$LT$$RF$T$u20$as$u20$core..fmt..Debug$GT$3fmt17h1f3987fbef001a3dE", ptr %8, align 8, !dbg !2963
  %9 = getelementptr inbounds [2 x %"core::fmt::rt::Argument<'_>"], ptr %_6, i64 0, i64 0, !dbg !2964
  call void @llvm.memcpy.p0.p0.i64(ptr align 8 %9, ptr align 8 %_12, i64 16, i1 false), !dbg !2964
  %10 = getelementptr inbounds [2 x %"core::fmt::rt::Argument<'_>"], ptr %_6, i64 0, i64 1, !dbg !2964
  call void @llvm.memcpy.p0.p0.i64(ptr align 8 %10, ptr align 8 %_19, i64 16, i1 false), !dbg !2964
  call void @llvm.dbg.declare(metadata ptr poison, metadata !2838, metadata !DIExpression()), !dbg !2965
  store ptr @alloc_7fd13544aa69fcb3281c2adb95eede52, ptr %_4, align 8, !dbg !2966
  %11 = getelementptr inbounds i8, ptr %_4, i64 8, !dbg !2966
  store i64 2, ptr %11, align 8, !dbg !2966
  %12 = getelementptr inbounds i8, ptr %_4, i64 32, !dbg !2966
  store ptr null, ptr %12, align 8, !dbg !2966
  %13 = getelementptr inbounds i8, ptr %12, i64 8, !dbg !2966
  store i64 undef, ptr %13, align 8, !dbg !2966
  %14 = getelementptr inbounds i8, ptr %_4, i64 16, !dbg !2966
  store ptr %_6, ptr %14, align 8, !dbg !2966
  %15 = getelementptr inbounds i8, ptr %14, i64 8, !dbg !2966
  store i64 2, ptr %15, align 8, !dbg !2966
  call void @_ZN4core9panicking9panic_fmt17h23b950b84eaab9d4E(ptr align 8 %_4, ptr align 8 %4) #21, !dbg !2964
  unreachable, !dbg !2964
}

; Function Attrs: nounwind nonlazybind
define internal zeroext i1 @"_ZN44_$LT$$RF$T$u20$as$u20$core..fmt..Display$GT$3fmt17hacf6a36319c119b5E"(ptr align 8 %self, ptr align 8 %f) unnamed_addr #2 !dbg !2967 {
start:
  call void @llvm.dbg.declare(metadata ptr poison, metadata !2970, metadata !DIExpression()), !dbg !2972
  call void @llvm.dbg.declare(metadata ptr poison, metadata !2971, metadata !DIExpression()), !dbg !2973
  %_3.0 = load ptr, ptr %self, align 8, !dbg !2974
  %0 = getelementptr inbounds i8, ptr %self, i64 8, !dbg !2974
  %_3.1 = load i64, ptr %0, align 8, !dbg !2974
  %_0 = call zeroext i1 @"_ZN42_$LT$str$u20$as$u20$core..fmt..Display$GT$3fmt17h9973bb85030890faE"(ptr align 1 %_3.0, i64 %_3.1, ptr align 8 %f) #20, !dbg !2975
  ret i1 %_0, !dbg !2976
}

; Function Attrs: nounwind nonlazybind
define internal zeroext i1 @"_ZN42_$LT$$RF$T$u20$as$u20$core..fmt..Debug$GT$3fmt17h1f3987fbef001a3dE"(ptr align 8 %self, ptr align 8 %f) unnamed_addr #2 !dbg !2977 {
start:
  call void @llvm.dbg.declare(metadata ptr poison, metadata !2980, metadata !DIExpression()), !dbg !2984
  call void @llvm.dbg.declare(metadata ptr poison, metadata !2981, metadata !DIExpression()), !dbg !2985
  %_3.0 = load ptr, ptr %self, align 8, !dbg !2986
  %0 = getelementptr inbounds i8, ptr %self, i64 8, !dbg !2986
  %_3.1 = load ptr, ptr %0, align 8, !dbg !2986
  %1 = getelementptr inbounds i8, ptr %_3.1, i64 24, !dbg !2987
  %2 = load ptr, ptr %1, align 8, !dbg !2987, !invariant.load !27, !nonnull !27
  %_0 = call zeroext i1 %2(ptr align 1 %_3.0, ptr align 8 %f) #20, !dbg !2987
  ret i1 %_0, !dbg !2988
}

; Function Attrs: cold noinline noreturn nounwind nonlazybind
declare void @_ZN4core9panicking9panic_fmt17h23b950b84eaab9d4E(ptr align 8, ptr align 8) unnamed_addr #7

; Function Attrs: nounwind nonlazybind
declare zeroext i1 @"_ZN42_$LT$str$u20$as$u20$core..fmt..Display$GT$3fmt17h9973bb85030890faE"(ptr align 1, i64, ptr align 8) unnamed_addr #2

; Function Attrs: alwaysinline nounwind nonlazybind
define internal void @"_ZN4core3ptr42drop_in_place$LT$std..io..error..Error$GT$17h3cce0f6809332407E"(ptr align 8 %_1) unnamed_addr #3 !dbg !2989 {
start:
  call void @llvm.dbg.declare(metadata ptr poison, metadata !2994, metadata !DIExpression()), !dbg !2995
  call fastcc void @"_ZN4core3ptr57drop_in_place$LT$std..io..error..repr_bitpacked..Repr$GT$17h906a208eb771b40fE"(ptr align 8 %_1) #20, !dbg !2995
  ret void, !dbg !2995
}

; Function Attrs: nounwind nonlazybind
declare zeroext i1 @"_ZN58_$LT$std..io..error..Error$u20$as$u20$core..fmt..Debug$GT$3fmt17hdabdd3a2a8dbece0E"(ptr align 8, ptr align 8) unnamed_addr #2

; Function Attrs: alwaysinline nounwind nonlazybind
define internal fastcc void @"_ZN4core3ptr57drop_in_place$LT$std..io..error..repr_bitpacked..Repr$GT$17h906a208eb771b40fE"(ptr align 8 %_1) unnamed_addr #3 !dbg !2996 {
start:
  call void @llvm.dbg.declare(metadata ptr poison, metadata !3001, metadata !DIExpression()), !dbg !3004
  call fastcc void @"_ZN78_$LT$std..io..error..repr_bitpacked..Repr$u20$as$u20$core..ops..drop..Drop$GT$4drop17h74064e23afb5439eE"(ptr align 8 %_1) #20, !dbg !3004
  ret void, !dbg !3004
}

; Function Attrs: inlinehint nounwind nonlazybind
define internal fastcc void @"_ZN78_$LT$std..io..error..repr_bitpacked..Repr$u20$as$u20$core..ops..drop..Drop$GT$4drop17h74064e23afb5439eE"(ptr align 8 %self) unnamed_addr #5 !dbg !3005 {
start:
  %_2 = alloca [16 x i8], align 8
  call void @llvm.dbg.declare(metadata ptr poison, metadata !3012, metadata !DIExpression()), !dbg !3013
  %_3 = load ptr, ptr %self, align 8, !dbg !3014
  call fastcc void @_ZN3std2io5error14repr_bitpacked11decode_repr17h565ed20816c6e351E(ptr noalias align 8 %_2, ptr %_3) #20, !dbg !3015
  call fastcc void @"_ZN4core3ptr101drop_in_place$LT$std..io..error..ErrorData$LT$alloc..boxed..Box$LT$std..io..error..Custom$GT$$GT$$GT$17h3faaf00479feea13E"(ptr align 8 %_2) #20, !dbg !3016
  ret void, !dbg !3017
}

; Function Attrs: inlinehint nounwind nonlazybind
define internal fastcc void @_ZN3std2io5error14repr_bitpacked11decode_repr17h565ed20816c6e351E(ptr noalias align 8 %_0, ptr %ptr) unnamed_addr #5 personality ptr @rust_eh_personality !dbg !3018 {
start:
  %0 = alloca [8 x i8], align 8
  %self = alloca [1 x i8], align 1
  %bits = alloca [8 x i8], align 8
  call void @llvm.dbg.declare(metadata ptr poison, metadata !3039, metadata !DIExpression()), !dbg !3051
  call void @llvm.dbg.declare(metadata ptr poison, metadata !3046, metadata !DIExpression()), !dbg !3093
  call void @llvm.dbg.declare(metadata ptr poison, metadata !3047, metadata !DIExpression()), !dbg !3094
  call void @llvm.dbg.declare(metadata ptr poison, metadata !3048, metadata !DIExpression()), !dbg !3095
  call void @llvm.dbg.declare(metadata ptr poison, metadata !3049, metadata !DIExpression()), !dbg !3096
  call void @llvm.dbg.declare(metadata ptr poison, metadata !3050, metadata !DIExpression()), !dbg !3097
  call void @llvm.dbg.declare(metadata ptr poison, metadata !3098, metadata !DIExpression()), !dbg !3111
  call void @llvm.dbg.declare(metadata ptr poison, metadata !3112, metadata !DIExpression()), !dbg !3120
  call void @llvm.dbg.declare(metadata ptr poison, metadata !3122, metadata !DIExpression()), !dbg !3129
  call void @llvm.dbg.declare(metadata ptr poison, metadata !3131, metadata !DIExpression()), !dbg !3139
  call void @llvm.dbg.declare(metadata ptr poison, metadata !3141, metadata !DIExpression()), !dbg !3148
  call void @llvm.dbg.declare(metadata ptr poison, metadata !3147, metadata !DIExpression()), !dbg !3150
  call void @llvm.dbg.declare(metadata ptr poison, metadata !3151, metadata !DIExpression()), !dbg !3158
  call void @llvm.dbg.declare(metadata ptr poison, metadata !3160, metadata !DIExpression()), !dbg !3169
  call void @llvm.dbg.declare(metadata ptr poison, metadata !3024, metadata !DIExpression()), !dbg !3180
  call void @llvm.dbg.declare(metadata ptr poison, metadata !3181, metadata !DIExpression()), !dbg !3192
  call void @llvm.dbg.declare(metadata ptr poison, metadata !3194, metadata !DIExpression()), !dbg !3209
  call void @llvm.dbg.declare(metadata ptr poison, metadata !3188, metadata !DIExpression()), !dbg !3211
  call void @llvm.dbg.declare(metadata ptr poison, metadata !3190, metadata !DIExpression()), !dbg !3213
  call void @llvm.dbg.declare(metadata ptr poison, metadata !3025, metadata !DIExpression()), !dbg !3215
  call void @llvm.dbg.declare(metadata ptr %bits, metadata !3026, metadata !DIExpression()), !dbg !3216
  call void @llvm.dbg.declare(metadata ptr %self, metadata !3088, metadata !DIExpression()), !dbg !3217
  call void @llvm.dbg.declare(metadata ptr poison, metadata !3177, metadata !DIExpression()), !dbg !3218
  call void @llvm.dbg.declare(metadata ptr poison, metadata !3219, metadata !DIExpression()), !dbg !3225
  call void @llvm.dbg.declare(metadata ptr poison, metadata !3227, metadata !DIExpression()), !dbg !3233
  call void @llvm.dbg.declare(metadata ptr poison, metadata !3235, metadata !DIExpression()), !dbg !3241
  call void @llvm.dbg.declare(metadata ptr poison, metadata !3119, metadata !DIExpression()), !dbg !3243
  call void @llvm.dbg.declare(metadata ptr poison, metadata !3244, metadata !DIExpression()), !dbg !3251
  %1 = ptrtoint ptr %ptr to i64, !dbg !3253
  store i64 %1, ptr %bits, align 8, !dbg !3253
  %2 = load i64, ptr %bits, align 8, !dbg !3254
  %_5 = and i64 %2, 3, !dbg !3254
  switch i64 %_5, label %default.unreachable [
    i64 2, label %bb2
    i64 3, label %bb3
    i64 0, label %bb5
    i64 1, label %bb6
  ], !dbg !3255

default.unreachable:                              ; preds = %start
  unreachable

bb2:                                              ; preds = %start
  %_8 = load i64, ptr %bits, align 8, !dbg !3256
  %_7 = ashr i64 %_8, 32, !dbg !3257
  %code = trunc i64 %_7 to i32, !dbg !3257
  call void @llvm.dbg.declare(metadata ptr poison, metadata !3028, metadata !DIExpression()), !dbg !3258
  %3 = getelementptr inbounds i8, ptr %_0, i64 4, !dbg !3259
  store i32 %code, ptr %3, align 4, !dbg !3259
  store i8 0, ptr %_0, align 8, !dbg !3259
  br label %bb10, !dbg !3260

bb3:                                              ; preds = %start
  %4 = load i64, ptr %bits, align 8, !dbg !3261
  %_10 = lshr i64 %4, 32, !dbg !3261
  %kind_bits = trunc i64 %_10 to i32, !dbg !3261
  call void @llvm.dbg.declare(metadata ptr poison, metadata !3030, metadata !DIExpression()), !dbg !3262
  %5 = call fastcc i8 @_ZN3std2io5error14repr_bitpacked14kind_from_prim17hebc7ffc2726ad380E(i32 %kind_bits) #20, !dbg !3263
  store i8 %5, ptr %self, align 1, !dbg !3263
  br label %bb4, !dbg !3263

bb5:                                              ; preds = %start
  call void @llvm.dbg.declare(metadata ptr poison, metadata !3264, metadata !DIExpression()), !dbg !3272
  %6 = getelementptr inbounds i8, ptr %_0, i64 8, !dbg !3274
  store ptr %ptr, ptr %6, align 8, !dbg !3274
  store i8 2, ptr %_0, align 8, !dbg !3274
  br label %bb10, !dbg !3260

bb6:                                              ; preds = %start
  call void @llvm.dbg.declare(metadata ptr poison, metadata !3128, metadata !DIExpression()), !dbg !3275
  call void @llvm.dbg.declare(metadata ptr poison, metadata !3157, metadata !DIExpression()), !dbg !3276
  %7 = getelementptr i8, ptr %ptr, i64 -1, !dbg !3277
  store ptr %7, ptr %0, align 8, !dbg !3277
  %_36 = load ptr, ptr %0, align 8, !dbg !3277
  call void @llvm.dbg.declare(metadata ptr poison, metadata !3176, metadata !DIExpression()), !dbg !3278
  call void @llvm.dbg.declare(metadata ptr poison, metadata !3166, metadata !DIExpression()), !dbg !3279
  call void @llvm.dbg.declare(metadata ptr poison, metadata !3280, metadata !DIExpression()), !dbg !3288
  call void @llvm.dbg.declare(metadata ptr poison, metadata !3034, metadata !DIExpression()), !dbg !3290
  %_17 = call fastcc align 8 ptr @"_ZN78_$LT$std..io..error..repr_bitpacked..Repr$u20$as$u20$core..ops..drop..Drop$GT$4drop28_$u7b$$u7b$closure$u7d$$u7d$17h5c3ea645e01a00b5E"(ptr %_36) #20, !dbg !3291
  br label %bb7, !dbg !3291

bb10:                                             ; preds = %bb15, %bb5, %bb2
  br label %bb8, !dbg !3260

bb4:                                              ; preds = %bb3
  call void @llvm.dbg.declare(metadata ptr poison, metadata !3089, metadata !DIExpression()), !dbg !3292
  call void @llvm.dbg.declare(metadata ptr poison, metadata !3064, metadata !DIExpression(DW_OP_deref)), !dbg !3293
  %8 = load i8, ptr %self, align 1, !dbg !3294
  %9 = icmp eq i8 %8, 41, !dbg !3294
  %_23 = select i1 %9, i64 0, i64 1, !dbg !3294
  %10 = icmp eq i64 %_23, 0, !dbg !3295
  br i1 %10, label %bb14, label %bb15, !dbg !3295

bb14:                                             ; preds = %bb4
  call fastcc void @_ZN4core4hint21unreachable_unchecked18precondition_check17h450b4c15606f6a46E() #20, !dbg !3296
  br label %bb13, !dbg !3296

bb15:                                             ; preds = %bb4
  %kind = load i8, ptr %self, align 1, !dbg !3305
  call void @llvm.dbg.declare(metadata ptr poison, metadata !3032, metadata !DIExpression()), !dbg !3306
  call void @llvm.dbg.declare(metadata ptr poison, metadata !3090, metadata !DIExpression()), !dbg !3307
  %11 = getelementptr inbounds i8, ptr %_0, i64 1, !dbg !3308
  store i8 %kind, ptr %11, align 1, !dbg !3308
  store i8 1, ptr %_0, align 8, !dbg !3308
  br label %bb10, !dbg !3260

bb13:                                             ; preds = %bb14
  unreachable, !dbg !3294

bb8:                                              ; preds = %bb7, %bb10
  ret void, !dbg !3309

bb7:                                              ; preds = %bb6
  %12 = getelementptr inbounds i8, ptr %_0, i64 8, !dbg !3310
  store ptr %_17, ptr %12, align 8, !dbg !3310
  store i8 3, ptr %_0, align 8, !dbg !3310
  br label %bb8, !dbg !3260
}

; Function Attrs: alwaysinline nounwind nonlazybind
define internal fastcc void @"_ZN4core3ptr101drop_in_place$LT$std..io..error..ErrorData$LT$alloc..boxed..Box$LT$std..io..error..Custom$GT$$GT$$GT$17h3faaf00479feea13E"(ptr align 8 %_1) unnamed_addr #3 !dbg !3311 {
start:
  call void @llvm.dbg.declare(metadata ptr poison, metadata !3316, metadata !DIExpression()), !dbg !3317
  %0 = load i8, ptr %_1, align 8, !dbg !3317
  %_2 = zext i8 %0 to i64, !dbg !3317
  switch i64 %_2, label %bb2 [
    i64 0, label %bb1
    i64 1, label %bb1
    i64 2, label %bb1
  ], !dbg !3317

bb2:                                              ; preds = %start
  %1 = getelementptr inbounds i8, ptr %_1, i64 8, !dbg !3317
  call fastcc void @"_ZN4core3ptr68drop_in_place$LT$alloc..boxed..Box$LT$std..io..error..Custom$GT$$GT$17hcded099d113f37d0E"(ptr align 8 %1) #20, !dbg !3317
  br label %bb1, !dbg !3317

bb1:                                              ; preds = %bb2, %start, %start, %start
  ret void, !dbg !3317
}

; Function Attrs: alwaysinline nounwind nonlazybind
define internal fastcc void @"_ZN4core3ptr68drop_in_place$LT$alloc..boxed..Box$LT$std..io..error..Custom$GT$$GT$17hcded099d113f37d0E"(ptr align 8 %_1) unnamed_addr #3 !dbg !3318 {
start:
  call void @llvm.dbg.declare(metadata ptr poison, metadata !3323, metadata !DIExpression()), !dbg !3326
  %_6 = load ptr, ptr %_1, align 8, !dbg !3326
  call fastcc void @"_ZN4core3ptr43drop_in_place$LT$std..io..error..Custom$GT$17h4ef201c025fbba41E"(ptr align 8 %_6) #20, !dbg !3326
  call fastcc void @"_ZN72_$LT$alloc..boxed..Box$LT$T$C$A$GT$$u20$as$u20$core..ops..drop..Drop$GT$4drop17h97f1c93fe22e0922E"(ptr align 8 %_1) #20, !dbg !3326
  ret void, !dbg !3326
}

; Function Attrs: alwaysinline nounwind nonlazybind
define internal fastcc void @"_ZN4core3ptr43drop_in_place$LT$std..io..error..Custom$GT$17h4ef201c025fbba41E"(ptr align 8 %_1) unnamed_addr #3 !dbg !3327 {
start:
  call void @llvm.dbg.declare(metadata ptr poison, metadata !3331, metadata !DIExpression()), !dbg !3334
  call fastcc void @"_ZN4core3ptr118drop_in_place$LT$alloc..boxed..Box$LT$dyn$u20$core..error..Error$u2b$core..marker..Send$u2b$core..marker..Sync$GT$$GT$17hed9318d2001e0748E"(ptr align 8 %_1) #20, !dbg !3334
  ret void, !dbg !3334
}

; Function Attrs: inlinehint nounwind nonlazybind
define internal fastcc void @"_ZN72_$LT$alloc..boxed..Box$LT$T$C$A$GT$$u20$as$u20$core..ops..drop..Drop$GT$4drop17h97f1c93fe22e0922E"(ptr align 8 %self) unnamed_addr #5 !dbg !3335 {
start:
  %0 = alloca [8 x i8], align 8
  %1 = alloca [8 x i8], align 8
  %layout = alloca [16 x i8], align 8
  call void @llvm.dbg.declare(metadata ptr poison, metadata !3340, metadata !DIExpression()), !dbg !3355
  call void @llvm.dbg.declare(metadata ptr %layout, metadata !3352, metadata !DIExpression()), !dbg !3356
  %ptr = load ptr, ptr %self, align 8, !dbg !3357
  call void @llvm.dbg.declare(metadata ptr poison, metadata !3341, metadata !DIExpression()), !dbg !3358
  call void @llvm.dbg.declare(metadata ptr poison, metadata !3359, metadata !DIExpression()), !dbg !3366
  call void @llvm.dbg.declare(metadata ptr poison, metadata !3368, metadata !DIExpression()), !dbg !3377
  call void @llvm.dbg.declare(metadata ptr poison, metadata !3379, metadata !DIExpression()), !dbg !3387
  call void @llvm.dbg.declare(metadata ptr poison, metadata !3389, metadata !DIExpression()), !dbg !3396
  call void @llvm.dbg.declare(metadata ptr poison, metadata !3375, metadata !DIExpression()), !dbg !3398
  call void @llvm.dbg.declare(metadata ptr poison, metadata !3400, metadata !DIExpression()), !dbg !3410
  call void @llvm.dbg.declare(metadata ptr poison, metadata !3412, metadata !DIExpression()), !dbg !3418
  call void @llvm.dbg.declare(metadata ptr poison, metadata !3420, metadata !DIExpression()), !dbg !3424
  store i64 24, ptr %1, align 8, !dbg !3426
  %size = load i64, ptr %1, align 8, !dbg !3426
  call void @llvm.dbg.declare(metadata ptr poison, metadata !3407, metadata !DIExpression()), !dbg !3427
  call void @llvm.dbg.declare(metadata ptr poison, metadata !3428, metadata !DIExpression()), !dbg !3433
  store i64 8, ptr %0, align 8, !dbg !3435
  %align = load i64, ptr %0, align 8, !dbg !3435
  call void @llvm.dbg.declare(metadata ptr poison, metadata !3409, metadata !DIExpression()), !dbg !3436
  call void @llvm.dbg.declare(metadata ptr poison, metadata !3432, metadata !DIExpression()), !dbg !3437
  call void @llvm.dbg.declare(metadata ptr poison, metadata !3438, metadata !DIExpression()), !dbg !3442
  %2 = getelementptr inbounds i8, ptr %layout, i64 8, !dbg !3444
  store i64 %size, ptr %2, align 8, !dbg !3444
  store i64 %align, ptr %layout, align 8, !dbg !3444
  call void @llvm.dbg.declare(metadata ptr poison, metadata !3445, metadata !DIExpression()), !dbg !3449
  %3 = icmp eq i64 %size, 0, !dbg !3451
  br i1 %3, label %bb3, label %bb1, !dbg !3451

bb3:                                              ; preds = %bb1, %start
  ret void, !dbg !3452

bb1:                                              ; preds = %start
  %_5 = getelementptr inbounds i8, ptr %self, i64 8, !dbg !3453
  call void @llvm.dbg.declare(metadata ptr poison, metadata !3454, metadata !DIExpression()), !dbg !3458
  call void @llvm.dbg.declare(metadata ptr poison, metadata !3460, metadata !DIExpression()), !dbg !3464
  %4 = load i64, ptr %layout, align 8, !dbg !3453
  %5 = getelementptr inbounds i8, ptr %layout, i64 8, !dbg !3453
  %6 = load i64, ptr %5, align 8, !dbg !3453
  call fastcc void @"_ZN63_$LT$alloc..alloc..Global$u20$as$u20$core..alloc..Allocator$GT$10deallocate17h11895959db45ce84E"(ptr align 1 %_5, ptr %ptr, i64 %4, i64 %6) #20, !dbg !3453
  br label %bb3, !dbg !3466
}

; Function Attrs: alwaysinline nounwind nonlazybind
define internal fastcc void @"_ZN4core3ptr118drop_in_place$LT$alloc..boxed..Box$LT$dyn$u20$core..error..Error$u2b$core..marker..Send$u2b$core..marker..Sync$GT$$GT$17hed9318d2001e0748E"(ptr align 8 %_1) unnamed_addr #3 !dbg !3467 {
start:
  call void @llvm.dbg.declare(metadata ptr poison, metadata !3472, metadata !DIExpression()), !dbg !3475
  %_6.0 = load ptr, ptr %_1, align 8, !dbg !3475
  %0 = getelementptr inbounds i8, ptr %_1, i64 8, !dbg !3475
  %_6.1 = load ptr, ptr %0, align 8, !dbg !3475
  %1 = getelementptr inbounds i8, ptr %_6.1, i64 0, !dbg !3475
  %2 = load ptr, ptr %1, align 8, !dbg !3475, !invariant.load !27
  %3 = icmp ne ptr %2, null, !dbg !3475
  br i1 %3, label %is_not_null, label %bb2, !dbg !3475

is_not_null:                                      ; preds = %start
  call void %2(ptr align 1 %_6.0) #20, !dbg !3475
  br label %bb2, !dbg !3475

bb2:                                              ; preds = %is_not_null, %start
  call fastcc void @"_ZN72_$LT$alloc..boxed..Box$LT$T$C$A$GT$$u20$as$u20$core..ops..drop..Drop$GT$4drop17h5545e15cea46d604E"(ptr align 8 %_1) #20, !dbg !3475
  ret void, !dbg !3475
}

; Function Attrs: inlinehint nounwind nonlazybind
define internal fastcc void @"_ZN72_$LT$alloc..boxed..Box$LT$T$C$A$GT$$u20$as$u20$core..ops..drop..Drop$GT$4drop17h5545e15cea46d604E"(ptr align 8 %self) unnamed_addr #5 !dbg !3476 {
start:
  %0 = alloca [8 x i8], align 8
  %1 = alloca [8 x i8], align 8
  %layout = alloca [16 x i8], align 8
  call void @llvm.dbg.declare(metadata ptr poison, metadata !3481, metadata !DIExpression()), !dbg !3501
  call void @llvm.dbg.declare(metadata ptr %layout, metadata !3498, metadata !DIExpression()), !dbg !3502
  %ptr.0 = load ptr, ptr %self, align 8, !dbg !3503
  %2 = getelementptr inbounds i8, ptr %self, i64 8, !dbg !3503
  %ptr.1 = load ptr, ptr %2, align 8, !dbg !3503
  call void @llvm.dbg.declare(metadata ptr poison, metadata !3482, metadata !DIExpression()), !dbg !3504
  call void @llvm.dbg.declare(metadata ptr poison, metadata !3505, metadata !DIExpression()), !dbg !3516
  call void @llvm.dbg.declare(metadata ptr poison, metadata !3518, metadata !DIExpression()), !dbg !3527
  call void @llvm.dbg.declare(metadata ptr poison, metadata !3529, metadata !DIExpression()), !dbg !3537
  call void @llvm.dbg.declare(metadata ptr poison, metadata !3539, metadata !DIExpression()), !dbg !3546
  call void @llvm.dbg.declare(metadata ptr poison, metadata !3525, metadata !DIExpression()), !dbg !3548
  call void @llvm.dbg.declare(metadata ptr poison, metadata !3550, metadata !DIExpression()), !dbg !3560
  call void @llvm.dbg.declare(metadata ptr poison, metadata !3562, metadata !DIExpression()), !dbg !3568
  call void @llvm.dbg.declare(metadata ptr poison, metadata !3570, metadata !DIExpression()), !dbg !3574
  %3 = getelementptr inbounds i8, ptr %ptr.1, i64 8, !dbg !3576
  %4 = load i64, ptr %3, align 8, !dbg !3576, !invariant.load !27
  %5 = getelementptr inbounds i8, ptr %ptr.1, i64 16, !dbg !3576
  store i64 %4, ptr %1, align 8, !dbg !3576
  %size = load i64, ptr %1, align 8, !dbg !3576
  call void @llvm.dbg.declare(metadata ptr poison, metadata !3557, metadata !DIExpression()), !dbg !3577
  call void @llvm.dbg.declare(metadata ptr poison, metadata !3578, metadata !DIExpression()), !dbg !3583
  %6 = getelementptr inbounds i8, ptr %ptr.1, i64 8, !dbg !3585
  %7 = getelementptr inbounds i8, ptr %ptr.1, i64 16, !dbg !3585
  %8 = load i64, ptr %7, align 8, !dbg !3585, !invariant.load !27
  store i64 %8, ptr %0, align 8, !dbg !3585
  %align = load i64, ptr %0, align 8, !dbg !3585
  call void @llvm.dbg.declare(metadata ptr poison, metadata !3559, metadata !DIExpression()), !dbg !3586
  call void @llvm.dbg.declare(metadata ptr poison, metadata !3582, metadata !DIExpression()), !dbg !3587
  call void @llvm.dbg.declare(metadata ptr poison, metadata !3588, metadata !DIExpression()), !dbg !3592
  %9 = getelementptr inbounds i8, ptr %layout, i64 8, !dbg !3594
  store i64 %size, ptr %9, align 8, !dbg !3594
  store i64 %align, ptr %layout, align 8, !dbg !3594
  call void @llvm.dbg.declare(metadata ptr poison, metadata !3595, metadata !DIExpression()), !dbg !3599
  %10 = icmp eq i64 %size, 0, !dbg !3601
  br i1 %10, label %bb3, label %bb1, !dbg !3601

bb3:                                              ; preds = %bb1, %start
  ret void, !dbg !3602

bb1:                                              ; preds = %start
  %_5 = getelementptr inbounds i8, ptr %self, i64 16, !dbg !3603
  call void @llvm.dbg.declare(metadata ptr poison, metadata !3604, metadata !DIExpression()), !dbg !3608
  call void @llvm.dbg.declare(metadata ptr poison, metadata !3610, metadata !DIExpression()), !dbg !3614
  %11 = load i64, ptr %layout, align 8, !dbg !3603
  %12 = getelementptr inbounds i8, ptr %layout, i64 8, !dbg !3603
  %13 = load i64, ptr %12, align 8, !dbg !3603
  call fastcc void @"_ZN63_$LT$alloc..alloc..Global$u20$as$u20$core..alloc..Allocator$GT$10deallocate17h11895959db45ce84E"(ptr align 1 %_5, ptr %ptr.0, i64 %11, i64 %13) #20, !dbg !3603
  br label %bb3, !dbg !3616
}

; Function Attrs: inlinehint nounwind nonlazybind
define internal fastcc i8 @_ZN3std2io5error14repr_bitpacked14kind_from_prim17hebc7ffc2726ad380E(i32 %0) unnamed_addr #5 !dbg !3617 {
start:
  %v.dbg.spill4 = alloca [8 x i8], align 8
  %v.dbg.spill3 = alloca [8 x i8], align 8
  %v.dbg.spill2 = alloca [8 x i8], align 8
  %v.dbg.spill1 = alloca [8 x i8], align 8
  %v.dbg.spill = alloca [8 x i8], align 8
  %_0 = alloca [1 x i8], align 1
  %ek = alloca [4 x i8], align 4
  store i32 %0, ptr %ek, align 4
  call void @llvm.dbg.declare(metadata ptr %ek, metadata !3621, metadata !DIExpression()), !dbg !3746
  call void @llvm.dbg.declare(metadata ptr %ek, metadata !3622, metadata !DIExpression()), !dbg !3747
  call void @llvm.dbg.declare(metadata ptr %ek, metadata !3626, metadata !DIExpression()), !dbg !3748
  call void @llvm.dbg.declare(metadata ptr %ek, metadata !3629, metadata !DIExpression()), !dbg !3749
  call void @llvm.dbg.declare(metadata ptr %ek, metadata !3632, metadata !DIExpression()), !dbg !3750
  call void @llvm.dbg.declare(metadata ptr %ek, metadata !3635, metadata !DIExpression()), !dbg !3751
  call void @llvm.dbg.declare(metadata ptr %ek, metadata !3638, metadata !DIExpression()), !dbg !3752
  call void @llvm.dbg.declare(metadata ptr %ek, metadata !3641, metadata !DIExpression()), !dbg !3753
  call void @llvm.dbg.declare(metadata ptr %ek, metadata !3644, metadata !DIExpression()), !dbg !3754
  call void @llvm.dbg.declare(metadata ptr %ek, metadata !3647, metadata !DIExpression()), !dbg !3755
  call void @llvm.dbg.declare(metadata ptr %ek, metadata !3650, metadata !DIExpression()), !dbg !3756
  call void @llvm.dbg.declare(metadata ptr %ek, metadata !3653, metadata !DIExpression()), !dbg !3757
  call void @llvm.dbg.declare(metadata ptr %ek, metadata !3656, metadata !DIExpression()), !dbg !3758
  call void @llvm.dbg.declare(metadata ptr %ek, metadata !3659, metadata !DIExpression()), !dbg !3759
  call void @llvm.dbg.declare(metadata ptr %ek, metadata !3662, metadata !DIExpression()), !dbg !3760
  call void @llvm.dbg.declare(metadata ptr %ek, metadata !3665, metadata !DIExpression()), !dbg !3761
  call void @llvm.dbg.declare(metadata ptr %ek, metadata !3668, metadata !DIExpression()), !dbg !3762
  call void @llvm.dbg.declare(metadata ptr %ek, metadata !3671, metadata !DIExpression()), !dbg !3763
  call void @llvm.dbg.declare(metadata ptr %ek, metadata !3674, metadata !DIExpression()), !dbg !3764
  call void @llvm.dbg.declare(metadata ptr %ek, metadata !3677, metadata !DIExpression()), !dbg !3765
  call void @llvm.dbg.declare(metadata ptr %ek, metadata !3680, metadata !DIExpression()), !dbg !3766
  call void @llvm.dbg.declare(metadata ptr %ek, metadata !3683, metadata !DIExpression()), !dbg !3767
  call void @llvm.dbg.declare(metadata ptr %ek, metadata !3686, metadata !DIExpression()), !dbg !3768
  call void @llvm.dbg.declare(metadata ptr %ek, metadata !3689, metadata !DIExpression()), !dbg !3769
  call void @llvm.dbg.declare(metadata ptr %ek, metadata !3692, metadata !DIExpression()), !dbg !3770
  call void @llvm.dbg.declare(metadata ptr %ek, metadata !3695, metadata !DIExpression()), !dbg !3771
  call void @llvm.dbg.declare(metadata ptr %ek, metadata !3698, metadata !DIExpression()), !dbg !3772
  call void @llvm.dbg.declare(metadata ptr %ek, metadata !3701, metadata !DIExpression()), !dbg !3773
  call void @llvm.dbg.declare(metadata ptr %ek, metadata !3704, metadata !DIExpression()), !dbg !3774
  call void @llvm.dbg.declare(metadata ptr %ek, metadata !3707, metadata !DIExpression()), !dbg !3775
  call void @llvm.dbg.declare(metadata ptr %ek, metadata !3710, metadata !DIExpression()), !dbg !3776
  call void @llvm.dbg.declare(metadata ptr %ek, metadata !3713, metadata !DIExpression()), !dbg !3777
  call void @llvm.dbg.declare(metadata ptr %ek, metadata !3716, metadata !DIExpression()), !dbg !3778
  call void @llvm.dbg.declare(metadata ptr %ek, metadata !3719, metadata !DIExpression()), !dbg !3779
  call void @llvm.dbg.declare(metadata ptr %ek, metadata !3722, metadata !DIExpression()), !dbg !3780
  call void @llvm.dbg.declare(metadata ptr %ek, metadata !3725, metadata !DIExpression()), !dbg !3781
  call void @llvm.dbg.declare(metadata ptr %ek, metadata !3728, metadata !DIExpression()), !dbg !3782
  call void @llvm.dbg.declare(metadata ptr %ek, metadata !3731, metadata !DIExpression()), !dbg !3783
  call void @llvm.dbg.declare(metadata ptr %ek, metadata !3734, metadata !DIExpression()), !dbg !3784
  call void @llvm.dbg.declare(metadata ptr %ek, metadata !3737, metadata !DIExpression()), !dbg !3785
  call void @llvm.dbg.declare(metadata ptr %ek, metadata !3740, metadata !DIExpression()), !dbg !3786
  call void @llvm.dbg.declare(metadata ptr %ek, metadata !3743, metadata !DIExpression()), !dbg !3787
  store ptr %ek, ptr %v.dbg.spill, align 8, !dbg !3788
  call void @llvm.dbg.declare(metadata ptr %v.dbg.spill, metadata !3624, metadata !DIExpression()), !dbg !3747
  %1 = load i32, ptr %ek, align 4, !dbg !3789
  %2 = icmp eq i32 %1, 0, !dbg !3789
  br i1 %2, label %bb1, label %bb2, !dbg !3789

bb1:                                              ; preds = %start
  store i8 0, ptr %_0, align 1, !dbg !3790
  br label %bb83, !dbg !3791

bb2:                                              ; preds = %start
  store ptr %ek, ptr %v.dbg.spill1, align 8, !dbg !3788
  call void @llvm.dbg.declare(metadata ptr %v.dbg.spill1, metadata !3628, metadata !DIExpression()), !dbg !3748
  %3 = load i32, ptr %ek, align 4, !dbg !3789
  %4 = icmp eq i32 %3, 1, !dbg !3789
  br i1 %4, label %bb3, label %bb4, !dbg !3789

bb83:                                             ; preds = %bb82, %bb81, %bb79, %bb77, %bb75, %bb73, %bb71, %bb69, %bb67, %bb65, %bb63, %bb61, %bb59, %bb57, %bb55, %bb53, %bb51, %bb49, %bb47, %bb45, %bb43, %bb41, %bb39, %bb37, %bb35, %bb33, %bb31, %bb29, %bb27, %bb25, %bb23, %bb21, %bb19, %bb17, %bb15, %bb13, %bb11, %bb9, %bb7, %bb5, %bb3, %bb1
  %5 = load i8, ptr %_0, align 1, !dbg !3792
  ret i8 %5, !dbg !3792

bb3:                                              ; preds = %bb2
  store i8 1, ptr %_0, align 1, !dbg !3793
  br label %bb83, !dbg !3791

bb4:                                              ; preds = %bb2
  store ptr %ek, ptr %v.dbg.spill2, align 8, !dbg !3788
  call void @llvm.dbg.declare(metadata ptr %v.dbg.spill2, metadata !3631, metadata !DIExpression()), !dbg !3749
  %6 = load i32, ptr %ek, align 4, !dbg !3789
  %7 = icmp eq i32 %6, 2, !dbg !3789
  br i1 %7, label %bb5, label %bb6, !dbg !3789

bb5:                                              ; preds = %bb4
  store i8 2, ptr %_0, align 1, !dbg !3794
  br label %bb83, !dbg !3791

bb6:                                              ; preds = %bb4
  store ptr %ek, ptr %v.dbg.spill3, align 8, !dbg !3788
  call void @llvm.dbg.declare(metadata ptr %v.dbg.spill3, metadata !3634, metadata !DIExpression()), !dbg !3750
  %8 = load i32, ptr %ek, align 4, !dbg !3789
  %9 = icmp eq i32 %8, 3, !dbg !3789
  br i1 %9, label %bb7, label %bb8, !dbg !3789

bb7:                                              ; preds = %bb6
  store i8 3, ptr %_0, align 1, !dbg !3795
  br label %bb83, !dbg !3791

bb8:                                              ; preds = %bb6
  store ptr %ek, ptr %v.dbg.spill4, align 8, !dbg !3788
  call void @llvm.dbg.declare(metadata ptr %v.dbg.spill4, metadata !3637, metadata !DIExpression()), !dbg !3751
  %10 = load i32, ptr %ek, align 4, !dbg !3789
  %11 = icmp eq i32 %10, 4, !dbg !3789
  br i1 %11, label %bb9, label %bb10, !dbg !3789

bb9:                                              ; preds = %bb8
  store i8 4, ptr %_0, align 1, !dbg !3796
  br label %bb83, !dbg !3791

bb10:                                             ; preds = %bb8
  call void @llvm.dbg.declare(metadata ptr poison, metadata !3640, metadata !DIExpression()), !dbg !3752
  %12 = load i32, ptr %ek, align 4, !dbg !3789
  %13 = icmp eq i32 %12, 5, !dbg !3789
  br i1 %13, label %bb11, label %bb12, !dbg !3789

bb11:                                             ; preds = %bb10
  store i8 5, ptr %_0, align 1, !dbg !3797
  br label %bb83, !dbg !3791

bb12:                                             ; preds = %bb10
  call void @llvm.dbg.declare(metadata ptr poison, metadata !3643, metadata !DIExpression()), !dbg !3753
  %14 = load i32, ptr %ek, align 4, !dbg !3789
  %15 = icmp eq i32 %14, 6, !dbg !3789
  br i1 %15, label %bb13, label %bb14, !dbg !3789

bb13:                                             ; preds = %bb12
  store i8 6, ptr %_0, align 1, !dbg !3798
  br label %bb83, !dbg !3791

bb14:                                             ; preds = %bb12
  call void @llvm.dbg.declare(metadata ptr poison, metadata !3646, metadata !DIExpression()), !dbg !3754
  %16 = load i32, ptr %ek, align 4, !dbg !3789
  %17 = icmp eq i32 %16, 7, !dbg !3789
  br i1 %17, label %bb15, label %bb16, !dbg !3789

bb15:                                             ; preds = %bb14
  store i8 7, ptr %_0, align 1, !dbg !3799
  br label %bb83, !dbg !3791

bb16:                                             ; preds = %bb14
  call void @llvm.dbg.declare(metadata ptr poison, metadata !3649, metadata !DIExpression()), !dbg !3755
  %18 = load i32, ptr %ek, align 4, !dbg !3789
  %19 = icmp eq i32 %18, 8, !dbg !3789
  br i1 %19, label %bb17, label %bb18, !dbg !3789

bb17:                                             ; preds = %bb16
  store i8 8, ptr %_0, align 1, !dbg !3800
  br label %bb83, !dbg !3791

bb18:                                             ; preds = %bb16
  call void @llvm.dbg.declare(metadata ptr poison, metadata !3652, metadata !DIExpression()), !dbg !3756
  %20 = load i32, ptr %ek, align 4, !dbg !3789
  %21 = icmp eq i32 %20, 9, !dbg !3789
  br i1 %21, label %bb19, label %bb20, !dbg !3789

bb19:                                             ; preds = %bb18
  store i8 9, ptr %_0, align 1, !dbg !3801
  br label %bb83, !dbg !3791

bb20:                                             ; preds = %bb18
  call void @llvm.dbg.declare(metadata ptr poison, metadata !3655, metadata !DIExpression()), !dbg !3757
  %22 = load i32, ptr %ek, align 4, !dbg !3789
  %23 = icmp eq i32 %22, 10, !dbg !3789
  br i1 %23, label %bb21, label %bb22, !dbg !3789

bb21:                                             ; preds = %bb20
  store i8 10, ptr %_0, align 1, !dbg !3802
  br label %bb83, !dbg !3791

bb22:                                             ; preds = %bb20
  call void @llvm.dbg.declare(metadata ptr poison, metadata !3658, metadata !DIExpression()), !dbg !3758
  %24 = load i32, ptr %ek, align 4, !dbg !3789
  %25 = icmp eq i32 %24, 11, !dbg !3789
  br i1 %25, label %bb23, label %bb24, !dbg !3789

bb23:                                             ; preds = %bb22
  store i8 11, ptr %_0, align 1, !dbg !3803
  br label %bb83, !dbg !3791

bb24:                                             ; preds = %bb22
  call void @llvm.dbg.declare(metadata ptr poison, metadata !3661, metadata !DIExpression()), !dbg !3759
  %26 = load i32, ptr %ek, align 4, !dbg !3789
  %27 = icmp eq i32 %26, 12, !dbg !3789
  br i1 %27, label %bb25, label %bb26, !dbg !3789

bb25:                                             ; preds = %bb24
  store i8 12, ptr %_0, align 1, !dbg !3804
  br label %bb83, !dbg !3791

bb26:                                             ; preds = %bb24
  call void @llvm.dbg.declare(metadata ptr poison, metadata !3664, metadata !DIExpression()), !dbg !3760
  %28 = load i32, ptr %ek, align 4, !dbg !3789
  %29 = icmp eq i32 %28, 13, !dbg !3789
  br i1 %29, label %bb27, label %bb28, !dbg !3789

bb27:                                             ; preds = %bb26
  store i8 13, ptr %_0, align 1, !dbg !3805
  br label %bb83, !dbg !3791

bb28:                                             ; preds = %bb26
  call void @llvm.dbg.declare(metadata ptr poison, metadata !3667, metadata !DIExpression()), !dbg !3761
  %30 = load i32, ptr %ek, align 4, !dbg !3789
  %31 = icmp eq i32 %30, 14, !dbg !3789
  br i1 %31, label %bb29, label %bb30, !dbg !3789

bb29:                                             ; preds = %bb28
  store i8 14, ptr %_0, align 1, !dbg !3806
  br label %bb83, !dbg !3791

bb30:                                             ; preds = %bb28
  call void @llvm.dbg.declare(metadata ptr poison, metadata !3670, metadata !DIExpression()), !dbg !3762
  %32 = load i32, ptr %ek, align 4, !dbg !3789
  %33 = icmp eq i32 %32, 15, !dbg !3789
  br i1 %33, label %bb31, label %bb32, !dbg !3789

bb31:                                             ; preds = %bb30
  store i8 15, ptr %_0, align 1, !dbg !3807
  br label %bb83, !dbg !3791

bb32:                                             ; preds = %bb30
  call void @llvm.dbg.declare(metadata ptr poison, metadata !3673, metadata !DIExpression()), !dbg !3763
  %34 = load i32, ptr %ek, align 4, !dbg !3789
  %35 = icmp eq i32 %34, 16, !dbg !3789
  br i1 %35, label %bb33, label %bb34, !dbg !3789

bb33:                                             ; preds = %bb32
  store i8 16, ptr %_0, align 1, !dbg !3808
  br label %bb83, !dbg !3791

bb34:                                             ; preds = %bb32
  call void @llvm.dbg.declare(metadata ptr poison, metadata !3676, metadata !DIExpression()), !dbg !3764
  %36 = load i32, ptr %ek, align 4, !dbg !3789
  %37 = icmp eq i32 %36, 17, !dbg !3789
  br i1 %37, label %bb35, label %bb36, !dbg !3789

bb35:                                             ; preds = %bb34
  store i8 17, ptr %_0, align 1, !dbg !3809
  br label %bb83, !dbg !3791

bb36:                                             ; preds = %bb34
  call void @llvm.dbg.declare(metadata ptr poison, metadata !3679, metadata !DIExpression()), !dbg !3765
  %38 = load i32, ptr %ek, align 4, !dbg !3789
  %39 = icmp eq i32 %38, 18, !dbg !3789
  br i1 %39, label %bb37, label %bb38, !dbg !3789

bb37:                                             ; preds = %bb36
  store i8 18, ptr %_0, align 1, !dbg !3810
  br label %bb83, !dbg !3791

bb38:                                             ; preds = %bb36
  call void @llvm.dbg.declare(metadata ptr poison, metadata !3682, metadata !DIExpression()), !dbg !3766
  %40 = load i32, ptr %ek, align 4, !dbg !3789
  %41 = icmp eq i32 %40, 19, !dbg !3789
  br i1 %41, label %bb39, label %bb40, !dbg !3789

bb39:                                             ; preds = %bb38
  store i8 19, ptr %_0, align 1, !dbg !3811
  br label %bb83, !dbg !3791

bb40:                                             ; preds = %bb38
  call void @llvm.dbg.declare(metadata ptr poison, metadata !3685, metadata !DIExpression()), !dbg !3767
  %42 = load i32, ptr %ek, align 4, !dbg !3789
  %43 = icmp eq i32 %42, 20, !dbg !3789
  br i1 %43, label %bb41, label %bb42, !dbg !3789

bb41:                                             ; preds = %bb40
  store i8 20, ptr %_0, align 1, !dbg !3812
  br label %bb83, !dbg !3791

bb42:                                             ; preds = %bb40
  call void @llvm.dbg.declare(metadata ptr poison, metadata !3688, metadata !DIExpression()), !dbg !3768
  %44 = load i32, ptr %ek, align 4, !dbg !3789
  %45 = icmp eq i32 %44, 21, !dbg !3789
  br i1 %45, label %bb43, label %bb44, !dbg !3789

bb43:                                             ; preds = %bb42
  store i8 21, ptr %_0, align 1, !dbg !3813
  br label %bb83, !dbg !3791

bb44:                                             ; preds = %bb42
  call void @llvm.dbg.declare(metadata ptr poison, metadata !3691, metadata !DIExpression()), !dbg !3769
  %46 = load i32, ptr %ek, align 4, !dbg !3789
  %47 = icmp eq i32 %46, 22, !dbg !3789
  br i1 %47, label %bb45, label %bb46, !dbg !3789

bb45:                                             ; preds = %bb44
  store i8 22, ptr %_0, align 1, !dbg !3814
  br label %bb83, !dbg !3791

bb46:                                             ; preds = %bb44
  call void @llvm.dbg.declare(metadata ptr poison, metadata !3694, metadata !DIExpression()), !dbg !3770
  %48 = load i32, ptr %ek, align 4, !dbg !3789
  %49 = icmp eq i32 %48, 23, !dbg !3789
  br i1 %49, label %bb47, label %bb48, !dbg !3789

bb47:                                             ; preds = %bb46
  store i8 23, ptr %_0, align 1, !dbg !3815
  br label %bb83, !dbg !3791

bb48:                                             ; preds = %bb46
  call void @llvm.dbg.declare(metadata ptr poison, metadata !3697, metadata !DIExpression()), !dbg !3771
  %50 = load i32, ptr %ek, align 4, !dbg !3789
  %51 = icmp eq i32 %50, 24, !dbg !3789
  br i1 %51, label %bb49, label %bb50, !dbg !3789

bb49:                                             ; preds = %bb48
  store i8 24, ptr %_0, align 1, !dbg !3816
  br label %bb83, !dbg !3791

bb50:                                             ; preds = %bb48
  call void @llvm.dbg.declare(metadata ptr poison, metadata !3700, metadata !DIExpression()), !dbg !3772
  %52 = load i32, ptr %ek, align 4, !dbg !3789
  %53 = icmp eq i32 %52, 25, !dbg !3789
  br i1 %53, label %bb51, label %bb52, !dbg !3789

bb51:                                             ; preds = %bb50
  store i8 25, ptr %_0, align 1, !dbg !3817
  br label %bb83, !dbg !3791

bb52:                                             ; preds = %bb50
  call void @llvm.dbg.declare(metadata ptr poison, metadata !3703, metadata !DIExpression()), !dbg !3773
  %54 = load i32, ptr %ek, align 4, !dbg !3789
  %55 = icmp eq i32 %54, 26, !dbg !3789
  br i1 %55, label %bb53, label %bb54, !dbg !3789

bb53:                                             ; preds = %bb52
  store i8 26, ptr %_0, align 1, !dbg !3818
  br label %bb83, !dbg !3791

bb54:                                             ; preds = %bb52
  call void @llvm.dbg.declare(metadata ptr poison, metadata !3706, metadata !DIExpression()), !dbg !3774
  %56 = load i32, ptr %ek, align 4, !dbg !3789
  %57 = icmp eq i32 %56, 27, !dbg !3789
  br i1 %57, label %bb55, label %bb56, !dbg !3789

bb55:                                             ; preds = %bb54
  store i8 27, ptr %_0, align 1, !dbg !3819
  br label %bb83, !dbg !3791

bb56:                                             ; preds = %bb54
  call void @llvm.dbg.declare(metadata ptr poison, metadata !3709, metadata !DIExpression()), !dbg !3775
  %58 = load i32, ptr %ek, align 4, !dbg !3789
  %59 = icmp eq i32 %58, 28, !dbg !3789
  br i1 %59, label %bb57, label %bb58, !dbg !3789

bb57:                                             ; preds = %bb56
  store i8 28, ptr %_0, align 1, !dbg !3820
  br label %bb83, !dbg !3791

bb58:                                             ; preds = %bb56
  call void @llvm.dbg.declare(metadata ptr poison, metadata !3712, metadata !DIExpression()), !dbg !3776
  %60 = load i32, ptr %ek, align 4, !dbg !3789
  %61 = icmp eq i32 %60, 29, !dbg !3789
  br i1 %61, label %bb59, label %bb60, !dbg !3789

bb59:                                             ; preds = %bb58
  store i8 29, ptr %_0, align 1, !dbg !3821
  br label %bb83, !dbg !3791

bb60:                                             ; preds = %bb58
  call void @llvm.dbg.declare(metadata ptr poison, metadata !3715, metadata !DIExpression()), !dbg !3777
  %62 = load i32, ptr %ek, align 4, !dbg !3789
  %63 = icmp eq i32 %62, 30, !dbg !3789
  br i1 %63, label %bb61, label %bb62, !dbg !3789

bb61:                                             ; preds = %bb60
  store i8 30, ptr %_0, align 1, !dbg !3822
  br label %bb83, !dbg !3791

bb62:                                             ; preds = %bb60
  call void @llvm.dbg.declare(metadata ptr poison, metadata !3718, metadata !DIExpression()), !dbg !3778
  %64 = load i32, ptr %ek, align 4, !dbg !3789
  %65 = icmp eq i32 %64, 31, !dbg !3789
  br i1 %65, label %bb63, label %bb64, !dbg !3789

bb63:                                             ; preds = %bb62
  store i8 31, ptr %_0, align 1, !dbg !3823
  br label %bb83, !dbg !3791

bb64:                                             ; preds = %bb62
  call void @llvm.dbg.declare(metadata ptr poison, metadata !3721, metadata !DIExpression()), !dbg !3779
  %66 = load i32, ptr %ek, align 4, !dbg !3789
  %67 = icmp eq i32 %66, 32, !dbg !3789
  br i1 %67, label %bb65, label %bb66, !dbg !3789

bb65:                                             ; preds = %bb64
  store i8 32, ptr %_0, align 1, !dbg !3824
  br label %bb83, !dbg !3791

bb66:                                             ; preds = %bb64
  call void @llvm.dbg.declare(metadata ptr poison, metadata !3724, metadata !DIExpression()), !dbg !3780
  %68 = load i32, ptr %ek, align 4, !dbg !3789
  %69 = icmp eq i32 %68, 33, !dbg !3789
  br i1 %69, label %bb67, label %bb68, !dbg !3789

bb67:                                             ; preds = %bb66
  store i8 33, ptr %_0, align 1, !dbg !3825
  br label %bb83, !dbg !3791

bb68:                                             ; preds = %bb66
  call void @llvm.dbg.declare(metadata ptr poison, metadata !3727, metadata !DIExpression()), !dbg !3781
  %70 = load i32, ptr %ek, align 4, !dbg !3789
  %71 = icmp eq i32 %70, 34, !dbg !3789
  br i1 %71, label %bb69, label %bb70, !dbg !3789

bb69:                                             ; preds = %bb68
  store i8 34, ptr %_0, align 1, !dbg !3826
  br label %bb83, !dbg !3791

bb70:                                             ; preds = %bb68
  call void @llvm.dbg.declare(metadata ptr poison, metadata !3730, metadata !DIExpression()), !dbg !3782
  %72 = load i32, ptr %ek, align 4, !dbg !3789
  %73 = icmp eq i32 %72, 35, !dbg !3789
  br i1 %73, label %bb71, label %bb72, !dbg !3789

bb71:                                             ; preds = %bb70
  store i8 35, ptr %_0, align 1, !dbg !3827
  br label %bb83, !dbg !3791

bb72:                                             ; preds = %bb70
  call void @llvm.dbg.declare(metadata ptr poison, metadata !3733, metadata !DIExpression()), !dbg !3783
  %74 = load i32, ptr %ek, align 4, !dbg !3789
  %75 = icmp eq i32 %74, 39, !dbg !3789
  br i1 %75, label %bb73, label %bb74, !dbg !3789

bb73:                                             ; preds = %bb72
  store i8 39, ptr %_0, align 1, !dbg !3828
  br label %bb83, !dbg !3791

bb74:                                             ; preds = %bb72
  call void @llvm.dbg.declare(metadata ptr poison, metadata !3736, metadata !DIExpression()), !dbg !3784
  %76 = load i32, ptr %ek, align 4, !dbg !3789
  %77 = icmp eq i32 %76, 37, !dbg !3789
  br i1 %77, label %bb75, label %bb76, !dbg !3789

bb75:                                             ; preds = %bb74
  store i8 37, ptr %_0, align 1, !dbg !3829
  br label %bb83, !dbg !3791

bb76:                                             ; preds = %bb74
  call void @llvm.dbg.declare(metadata ptr poison, metadata !3739, metadata !DIExpression()), !dbg !3785
  %78 = load i32, ptr %ek, align 4, !dbg !3789
  %79 = icmp eq i32 %78, 36, !dbg !3789
  br i1 %79, label %bb77, label %bb78, !dbg !3789

bb77:                                             ; preds = %bb76
  store i8 36, ptr %_0, align 1, !dbg !3830
  br label %bb83, !dbg !3791

bb78:                                             ; preds = %bb76
  call void @llvm.dbg.declare(metadata ptr poison, metadata !3742, metadata !DIExpression()), !dbg !3786
  %80 = load i32, ptr %ek, align 4, !dbg !3789
  %81 = icmp eq i32 %80, 38, !dbg !3789
  br i1 %81, label %bb79, label %bb80, !dbg !3789

bb79:                                             ; preds = %bb78
  store i8 38, ptr %_0, align 1, !dbg !3831
  br label %bb83, !dbg !3791

bb80:                                             ; preds = %bb78
  call void @llvm.dbg.declare(metadata ptr poison, metadata !3745, metadata !DIExpression()), !dbg !3787
  %82 = load i32, ptr %ek, align 4, !dbg !3789
  %83 = icmp eq i32 %82, 40, !dbg !3789
  br i1 %83, label %bb81, label %bb82, !dbg !3789

bb81:                                             ; preds = %bb80
  store i8 40, ptr %_0, align 1, !dbg !3832
  br label %bb83, !dbg !3791

bb82:                                             ; preds = %bb80
  store i8 41, ptr %_0, align 1, !dbg !3833
  br label %bb83, !dbg !3833
}

; Function Attrs: inlinehint nounwind nonlazybind
define internal fastcc align 8 ptr @"_ZN78_$LT$std..io..error..repr_bitpacked..Repr$u20$as$u20$core..ops..drop..Drop$GT$4drop28_$u7b$$u7b$closure$u7d$$u7d$17h5c3ea645e01a00b5E"(ptr %p) unnamed_addr #5 !dbg !3834 {
start:
  call void @llvm.dbg.declare(metadata ptr poison, metadata !3840, metadata !DIExpression()), !dbg !3848
  call void @llvm.dbg.declare(metadata ptr poison, metadata !3839, metadata !DIExpression()), !dbg !3858
  call void @llvm.dbg.declare(metadata ptr poison, metadata !3838, metadata !DIExpression()), !dbg !3859
  call void @llvm.dbg.declare(metadata ptr poison, metadata !3856, metadata !DIExpression()), !dbg !3860
  call void @llvm.dbg.declare(metadata ptr poison, metadata !3847, metadata !DIExpression()), !dbg !3861
  call void @llvm.dbg.declare(metadata ptr poison, metadata !3862, metadata !DIExpression()), !dbg !3869
  call void @llvm.dbg.declare(metadata ptr poison, metadata !3871, metadata !DIExpression()), !dbg !3878
  br label %bb1, !dbg !3880

bb1:                                              ; preds = %start
  call fastcc void @"_ZN4core3ptr8non_null16NonNull$LT$T$GT$13new_unchecked18precondition_check17h15e3f15a9bfd79eaE"(ptr %p) #20, !dbg !3882
  br label %bb3, !dbg !3883

bb3:                                              ; preds = %bb1
  ret ptr %p, !dbg !3884
}

; Function Attrs: inlinehint nounwind nonlazybind
define internal fastcc void @_ZN4core4hint21unreachable_unchecked18precondition_check17h450b4c15606f6a46E() unnamed_addr #5 !dbg !3885 {
start:
  call void @_ZN4core9panicking14panic_nounwind17h26138b2b42fa1f60E(ptr align 1 @alloc_1eb6f53a157dccb32488e066ad957e6d, i64 82) #21, !dbg !3887
  unreachable, !dbg !3887
}

; Function Attrs: inlinehint nounwind nonlazybind
define internal fastcc void @"_ZN4core3ptr8non_null16NonNull$LT$T$GT$13new_unchecked18precondition_check17h15e3f15a9bfd79eaE"(ptr %ptr) unnamed_addr #5 !dbg !3888 {
start:
  call void @llvm.dbg.declare(metadata ptr poison, metadata !3894, metadata !DIExpression()), !dbg !3895
  call void @llvm.dbg.declare(metadata ptr poison, metadata !3896, metadata !DIExpression()), !dbg !3902
  call void @llvm.dbg.declare(metadata ptr poison, metadata !3905, metadata !DIExpression()), !dbg !3912
  call void @llvm.dbg.declare(metadata ptr poison, metadata !3914, metadata !DIExpression()), !dbg !3920
  call void @llvm.dbg.declare(metadata ptr poison, metadata !3922, metadata !DIExpression()), !dbg !3928
  %_4 = ptrtoint ptr %ptr to i64, !dbg !3930
  %0 = icmp eq i64 %_4, 0, !dbg !3931
  br i1 %0, label %bb1, label %bb2, !dbg !3931

bb1:                                              ; preds = %start
  call void @_ZN4core9panicking14panic_nounwind17h26138b2b42fa1f60E(ptr align 1 @alloc_20b3d155afd5c58c42e598b7e6d186ef, i64 93) #21, !dbg !3932
  unreachable, !dbg !3932

bb2:                                              ; preds = %start
  ret void, !dbg !3933
}

; Function Attrs: alwaysinline nounwind nonlazybind
define internal fastcc void @_ZN3std6thread7Builder16spawn_unchecked_17h36195cf70baac126E(ptr noalias align 8 %_0, ptr align 1 %self) unnamed_addr #3 personality ptr @rust_eh_personality !dbg !3934 {
start:
  %0 = alloca [8 x i8], align 8
  %1 = alloca [8 x i8], align 8
  %scope_data.dbg.spill = alloca [8 x i8], align 8
  %_117 = alloca [24 x i8], align 8
  %_116 = alloca [8 x i8], align 8
  %b18 = alloca [8 x i8], align 8
  %_sink17 = alloca [8 x i8], align 8
  %_sink = alloca [8 x i8], align 8
  %b = alloca [8 x i8], align 8
  %_48 = alloca [8 x i8], align 8
  %_47 = alloca [48 x i8], align 8
  %_43 = alloca [1 x i8], align 1
  %residual = alloca [8 x i8], align 8
  %self16 = alloca [16 x i8], align 8
  %_32 = alloca [16 x i8], align 8
  %_31 = alloca [8 x i8], align 8
  %_30 = alloca [24 x i8], align 8
  %main = alloca [16 x i8], align 8
  %sink = alloca [8 x i8], align 8
  %_14 = alloca [8 x i8], align 8
  %output_capture = alloca [8 x i8], align 8
  %their_packet = alloca [8 x i8], align 8
  %value = alloca [24 x i8], align 8
  %data = alloca [32 x i8], align 8
  %my_packet = alloca [8 x i8], align 8
  %stack_size14 = alloca [8 x i8], align 8
  %stack_size = alloca [16 x i8], align 8
  %name = alloca [24 x i8], align 8
  %order.dbg.spill10 = alloca [1 x i8], align 1
  %val.dbg.spill9 = alloca [8 x i8], align 8
  %order.dbg.spill8 = alloca [1 x i8], align 1
  %val.dbg.spill7 = alloca [8 x i8], align 8
  %sink.dbg.spill = alloca [8 x i8], align 8
  %order.dbg.spill5 = alloca [1 x i8], align 1
  %val.dbg.spill4 = alloca [8 x i8], align 8
  %order.dbg.spill = alloca [1 x i8], align 1
  %val.dbg.spill = alloca [8 x i8], align 8
  %value.dbg.spill2 = alloca [8 x i8], align 8
  %v.dbg.spill1 = alloca [8 x i8], align 8
  %value.dbg.spill = alloca [8 x i8], align 8
  %v.dbg.spill = alloca [8 x i8], align 8
  %default.dbg.spill = alloca [8 x i8], align 8
  call void @llvm.dbg.declare(metadata ptr poison, metadata !3947, metadata !DIExpression()), !dbg !3981
  call void @llvm.dbg.declare(metadata ptr poison, metadata !3952, metadata !DIExpression()), !dbg !3982
  store i64 2097152, ptr %default.dbg.spill, align 8, !dbg !3983
  call void @llvm.dbg.declare(metadata ptr %default.dbg.spill, metadata !3991, metadata !DIExpression()), !dbg !3983
  store i64 1, ptr %v.dbg.spill, align 8, !dbg !3995
  call void @llvm.dbg.declare(metadata ptr %v.dbg.spill, metadata !4002, metadata !DIExpression()), !dbg !3995
  store i64 1, ptr %value.dbg.spill, align 8, !dbg !4017
  call void @llvm.dbg.declare(metadata ptr %value.dbg.spill, metadata !4024, metadata !DIExpression()), !dbg !4017
  store i64 1, ptr %v.dbg.spill1, align 8, !dbg !4028
  call void @llvm.dbg.declare(metadata ptr %v.dbg.spill1, metadata !4003, metadata !DIExpression()), !dbg !4028
  store i64 1, ptr %value.dbg.spill2, align 8, !dbg !4030
  call void @llvm.dbg.declare(metadata ptr %value.dbg.spill2, metadata !4025, metadata !DIExpression()), !dbg !4030
  call void @llvm.dbg.declare(metadata ptr poison, metadata !4032, metadata !DIExpression()), !dbg !4054
  call void @llvm.dbg.declare(metadata ptr poison, metadata !4071, metadata !DIExpression()), !dbg !4082
  store i64 1, ptr %val.dbg.spill, align 8, !dbg !4092
  call void @llvm.dbg.declare(metadata ptr %val.dbg.spill, metadata !4098, metadata !DIExpression()), !dbg !4092
  store i8 0, ptr %order.dbg.spill, align 1, !dbg !4115
  call void @llvm.dbg.declare(metadata ptr %order.dbg.spill, metadata !4099, metadata !DIExpression()), !dbg !4115
  store i64 1, ptr %val.dbg.spill4, align 8, !dbg !4116
  call void @llvm.dbg.declare(metadata ptr %val.dbg.spill4, metadata !4121, metadata !DIExpression()), !dbg !4116
  store i8 0, ptr %order.dbg.spill5, align 1, !dbg !4128
  call void @llvm.dbg.declare(metadata ptr %order.dbg.spill5, metadata !4122, metadata !DIExpression()), !dbg !4128
  call void @llvm.dbg.declare(metadata ptr poison, metadata !4081, metadata !DIExpression()), !dbg !4129
  store ptr null, ptr %sink.dbg.spill, align 8, !dbg !4131
  call void @llvm.dbg.declare(metadata ptr %sink.dbg.spill, metadata !4139, metadata !DIExpression()), !dbg !4131
  store i64 1, ptr %val.dbg.spill7, align 8, !dbg !4143
  call void @llvm.dbg.declare(metadata ptr %val.dbg.spill7, metadata !4102, metadata !DIExpression()), !dbg !4143
  store i8 0, ptr %order.dbg.spill8, align 1, !dbg !4166
  call void @llvm.dbg.declare(metadata ptr %order.dbg.spill8, metadata !4103, metadata !DIExpression()), !dbg !4166
  store i64 1, ptr %val.dbg.spill9, align 8, !dbg !4167
  call void @llvm.dbg.declare(metadata ptr %val.dbg.spill9, metadata !4125, metadata !DIExpression()), !dbg !4167
  store i8 0, ptr %order.dbg.spill10, align 1, !dbg !4169
  call void @llvm.dbg.declare(metadata ptr %order.dbg.spill10, metadata !4126, metadata !DIExpression()), !dbg !4169
  call void @llvm.dbg.declare(metadata ptr poison, metadata !4170, metadata !DIExpression()), !dbg !4178
  call void @llvm.dbg.declare(metadata ptr poison, metadata !4180, metadata !DIExpression()), !dbg !4204
  call void @llvm.dbg.declare(metadata ptr poison, metadata !4213, metadata !DIExpression()), !dbg !4226
  call void @llvm.dbg.declare(metadata ptr %self, metadata !3939, metadata !DIExpression()), !dbg !4236
  call void @llvm.dbg.declare(metadata ptr poison, metadata !3940, metadata !DIExpression()), !dbg !4237
  store ptr null, ptr %scope_data.dbg.spill, align 8, !dbg !4226
  call void @llvm.dbg.declare(metadata ptr %scope_data.dbg.spill, metadata !3941, metadata !DIExpression()), !dbg !4238
  call void @llvm.dbg.declare(metadata ptr %name, metadata !3942, metadata !DIExpression()), !dbg !4239
  call void @llvm.dbg.declare(metadata ptr %stack_size, metadata !3944, metadata !DIExpression()), !dbg !4240
  call void @llvm.dbg.declare(metadata ptr %stack_size, metadata !3990, metadata !DIExpression()), !dbg !4241
  call void @llvm.dbg.declare(metadata ptr %stack_size14, metadata !3945, metadata !DIExpression()), !dbg !4242
  call void @llvm.dbg.declare(metadata ptr %my_packet, metadata !3954, metadata !DIExpression()), !dbg !4243
  call void @llvm.dbg.declare(metadata ptr %data, metadata !4012, metadata !DIExpression()), !dbg !4244
  call void @llvm.dbg.declare(metadata ptr %value, metadata !4245, metadata !DIExpression()), !dbg !4252
  call void @llvm.dbg.declare(metadata ptr %their_packet, metadata !3956, metadata !DIExpression()), !dbg !4254
  call void @llvm.dbg.declare(metadata ptr %output_capture, metadata !3958, metadata !DIExpression()), !dbg !4255
  call void @llvm.dbg.declare(metadata ptr %sink, metadata !4140, metadata !DIExpression()), !dbg !4256
  call void @llvm.dbg.declare(metadata ptr poison, metadata !3960, metadata !DIExpression()), !dbg !4258
  call void @llvm.dbg.declare(metadata ptr poison, metadata !4259, metadata !DIExpression()), !dbg !4266
  call void @llvm.dbg.declare(metadata ptr poison, metadata !4268, metadata !DIExpression()), !dbg !4274
  call void @llvm.dbg.declare(metadata ptr poison, metadata !4276, metadata !DIExpression()), !dbg !4282
  call void @llvm.dbg.declare(metadata ptr %main, metadata !3962, metadata !DIExpression()), !dbg !4284
  call void @llvm.dbg.declare(metadata ptr %self16, metadata !4285, metadata !DIExpression()), !dbg !4324
  call void @llvm.dbg.declare(metadata ptr %residual, metadata !3977, metadata !DIExpression()), !dbg !4326
  call void @llvm.dbg.declare(metadata ptr %residual, metadata !4327, metadata !DIExpression()), !dbg !4336
  call void @llvm.dbg.declare(metadata ptr %b, metadata !4046, metadata !DIExpression()), !dbg !4338
  call void @llvm.dbg.declare(metadata ptr %_sink, metadata !4339, metadata !DIExpression()), !dbg !4363
  call void @llvm.dbg.declare(metadata ptr %_sink17, metadata !4361, metadata !DIExpression()), !dbg !4365
  call void @llvm.dbg.declare(metadata ptr %b18, metadata !4195, metadata !DIExpression()), !dbg !4367
  store i8 1, ptr %_43, align 1, !dbg !4368
  %2 = getelementptr inbounds i8, ptr %self, i64 16, !dbg !4369
  call void @llvm.memcpy.p0.p0.i64(ptr align 8 %name, ptr align 1 %2, i64 24, i1 false), !dbg !4369
  %3 = load i64, ptr %self, align 1, !dbg !4370
  %4 = getelementptr inbounds i8, ptr %self, i64 8, !dbg !4370
  %5 = load i64, ptr %4, align 1, !dbg !4370
  store i64 %3, ptr %stack_size, align 8, !dbg !4370
  %6 = getelementptr inbounds i8, ptr %stack_size, i64 8, !dbg !4370
  store i64 %5, ptr %6, align 8, !dbg !4370
  %_44 = load i64, ptr %stack_size, align 8, !dbg !4371
  %7 = icmp eq i64 %_44, 0, !dbg !4372
  br i1 %7, label %bb27, label %bb28, !dbg !4372

bb27:                                             ; preds = %start
  store i64 2097152, ptr %stack_size14, align 8, !dbg !4373
  br label %bb26, !dbg !4373

bb28:                                             ; preds = %start
  %8 = getelementptr inbounds i8, ptr %stack_size, i64 8, !dbg !4374
  %x = load i64, ptr %8, align 8, !dbg !4374
  call void @llvm.dbg.declare(metadata ptr poison, metadata !3992, metadata !DIExpression()), !dbg !4375
  store i64 %x, ptr %stack_size14, align 8, !dbg !4376
  br label %bb26, !dbg !4377

bb26:                                             ; preds = %bb28, %bb27
  store i64 0, ptr %value, align 8, !dbg !4378
  store ptr null, ptr %data, align 8, !dbg !4379
  %9 = getelementptr inbounds i8, ptr %data, i64 8, !dbg !4379
  call void @llvm.memcpy.p0.p0.i64(ptr align 8 %9, ptr align 8 %value, i64 24, i1 false), !dbg !4379
  store i64 1, ptr %_48, align 8, !dbg !4380
  call void @llvm.memcpy.p0.p0.i64(ptr align 8 %_47, ptr align 8 %_48, i64 8, i1 false), !dbg !4381
  %10 = getelementptr inbounds i8, ptr %_47, i64 8, !dbg !4381
  call void @llvm.memcpy.p0.p0.i64(ptr align 8 %10, ptr align 8 %_48, i64 8, i1 false), !dbg !4381
  %11 = getelementptr inbounds i8, ptr %_47, i64 16, !dbg !4381
  call void @llvm.memcpy.p0.p0.i64(ptr align 8 %11, ptr align 8 %data, i64 32, i1 false), !dbg !4381
  %x20 = call fastcc align 8 ptr @"_ZN5alloc5boxed12Box$LT$T$GT$3new17h1f548add9fb83d4cE"(ptr align 8 %_47) #20, !dbg !4382
  call void @llvm.dbg.declare(metadata ptr poison, metadata !4013, metadata !DIExpression()), !dbg !4383
  call void @llvm.dbg.declare(metadata ptr poison, metadata !4069, metadata !DIExpression()), !dbg !4384
  call void @llvm.dbg.declare(metadata ptr poison, metadata !4061, metadata !DIExpression()), !dbg !4385
  call void @llvm.dbg.declare(metadata ptr poison, metadata !4045, metadata !DIExpression()), !dbg !4386
  call void @llvm.dbg.declare(metadata ptr poison, metadata !4387, metadata !DIExpression()), !dbg !4394
  br label %bb29, !dbg !4382

bb29:                                             ; preds = %bb26
  store ptr %x20, ptr %b, align 8, !dbg !4396
  call void @llvm.dbg.declare(metadata ptr poison, metadata !4397, metadata !DIExpression()), !dbg !4406
  %_56 = load ptr, ptr %b, align 8, !dbg !4408
  call void @llvm.dbg.declare(metadata ptr poison, metadata !4052, metadata !DIExpression()), !dbg !4409
  call void @llvm.dbg.declare(metadata ptr poison, metadata !4410, metadata !DIExpression()), !dbg !4420
  call void @llvm.dbg.declare(metadata ptr poison, metadata !4422, metadata !DIExpression()), !dbg !4429
  call void @llvm.dbg.declare(metadata ptr poison, metadata !4431, metadata !DIExpression()), !dbg !4440
  call void @llvm.dbg.declare(metadata ptr poison, metadata !4442, metadata !DIExpression()), !dbg !4453
  call void @llvm.dbg.declare(metadata ptr poison, metadata !4090, metadata !DIExpression()), !dbg !4455
  call void @llvm.dbg.declare(metadata ptr poison, metadata !4078, metadata !DIExpression()), !dbg !4456
  store ptr %_56, ptr %my_packet, align 8, !dbg !4457
  call void @llvm.dbg.declare(metadata ptr poison, metadata !4111, metadata !DIExpression()), !dbg !4458
  call void @llvm.dbg.declare(metadata ptr poison, metadata !4459, metadata !DIExpression()), !dbg !4465
  call void @llvm.dbg.declare(metadata ptr poison, metadata !4467, metadata !DIExpression()), !dbg !4473
  %self26 = load ptr, ptr %my_packet, align 8, !dbg !4475
  call void @llvm.dbg.declare(metadata ptr poison, metadata !4476, metadata !DIExpression()), !dbg !4482
  call void @llvm.dbg.declare(metadata ptr poison, metadata !4484, metadata !DIExpression()), !dbg !4490
  call void @llvm.dbg.declare(metadata ptr poison, metadata !4097, metadata !DIExpression()), !dbg !4492
  call void @llvm.dbg.declare(metadata ptr poison, metadata !4493, metadata !DIExpression()), !dbg !4499
  call void @llvm.dbg.declare(metadata ptr poison, metadata !4120, metadata !DIExpression()), !dbg !4501
  %12 = atomicrmw add ptr %self26, i64 1 monotonic, align 8, !dbg !4502
  store i64 %12, ptr %1, align 8, !dbg !4502
  %old_size = load i64, ptr %1, align 8, !dbg !4502
  call void @llvm.dbg.declare(metadata ptr poison, metadata !4112, metadata !DIExpression()), !dbg !4503
  %_60 = icmp ugt i64 %old_size, 9223372036854775807, !dbg !4504
  br i1 %_60, label %bb30, label %bb31, !dbg !4504

bb31:                                             ; preds = %bb29
  %ptr = load ptr, ptr %my_packet, align 8, !dbg !4505
  call void @llvm.dbg.declare(metadata ptr poison, metadata !4079, metadata !DIExpression()), !dbg !4506
  call void @llvm.dbg.declare(metadata ptr poison, metadata !4507, metadata !DIExpression()), !dbg !4516
  store ptr %ptr, ptr %their_packet, align 8, !dbg !4518
  store ptr null, ptr %_sink, align 8, !dbg !4519
  call fastcc void @"_ZN4core3ptr129drop_in_place$LT$core..option..Option$LT$alloc..sync..Arc$LT$std..sync..mutex..Mutex$LT$alloc..vec..Vec$LT$u8$GT$$GT$$GT$$GT$$GT$17h383a277233d40e8cE"(ptr align 8 %_sink) #20, !dbg !4520
  br label %bb34, !dbg !4520

bb30:                                             ; preds = %bb29
  call void @llvm.trap(), !dbg !4521
  unreachable, !dbg !4521

bb34:                                             ; preds = %bb31
  %13 = call fastcc ptr @"_ZN4core6result19Result$LT$T$C$E$GT$6expect17hf9b00542ab14cb2aE"(i64 0, i64 70) #20, !dbg !4364
  store ptr %13, ptr %output_capture, align 8, !dbg !4364
  br label %bb33, !dbg !4364

bb33:                                             ; preds = %bb34
  call void @llvm.dbg.declare(metadata ptr poison, metadata !4163, metadata !DIExpression()), !dbg !4522
  %14 = load ptr, ptr %output_capture, align 8, !dbg !4523
  %15 = ptrtoint ptr %14 to i64, !dbg !4523
  %16 = icmp eq i64 %15, 0, !dbg !4523
  %_72 = select i1 %16, i64 0, i64 1, !dbg !4523
  %17 = icmp eq i64 %_72, 0, !dbg !4524
  br i1 %17, label %bb36, label %bb37, !dbg !4524

bb36:                                             ; preds = %bb33
  store ptr null, ptr %sink, align 8, !dbg !4525
  br label %bb35, !dbg !4525

bb37:                                             ; preds = %bb33
  call void @llvm.dbg.declare(metadata ptr poison, metadata !4164, metadata !DIExpression()), !dbg !4526
  call void @llvm.dbg.declare(metadata ptr poison, metadata !4151, metadata !DIExpression()), !dbg !4527
  call void @llvm.dbg.declare(metadata ptr poison, metadata !4528, metadata !DIExpression()), !dbg !4536
  call void @llvm.dbg.declare(metadata ptr poison, metadata !4538, metadata !DIExpression()), !dbg !4546
  %self38 = load ptr, ptr %output_capture, align 8, !dbg !4548
  call void @llvm.dbg.declare(metadata ptr poison, metadata !4549, metadata !DIExpression()), !dbg !4557
  call void @llvm.dbg.declare(metadata ptr poison, metadata !4559, metadata !DIExpression()), !dbg !4565
  call void @llvm.dbg.declare(metadata ptr poison, metadata !4100, metadata !DIExpression()), !dbg !4567
  call void @llvm.dbg.declare(metadata ptr poison, metadata !4497, metadata !DIExpression()), !dbg !4568
  call void @llvm.dbg.declare(metadata ptr poison, metadata !4123, metadata !DIExpression()), !dbg !4570
  %18 = atomicrmw add ptr %self38, i64 1 monotonic, align 8, !dbg !4571
  store i64 %18, ptr %0, align 8, !dbg !4571
  %old_size44 = load i64, ptr %0, align 8, !dbg !4571
  call void @llvm.dbg.declare(metadata ptr poison, metadata !4152, metadata !DIExpression()), !dbg !4572
  %_78 = icmp ugt i64 %old_size44, 9223372036854775807, !dbg !4573
  br i1 %_78, label %bb38, label %bb39, !dbg !4573

bb35:                                             ; preds = %bb39, %bb36
  %19 = load ptr, ptr %sink, align 8, !dbg !4574
  store ptr %19, ptr %_sink17, align 8, !dbg !4574
  call fastcc void @"_ZN4core3ptr129drop_in_place$LT$core..option..Option$LT$alloc..sync..Arc$LT$std..sync..mutex..Mutex$LT$alloc..vec..Vec$LT$u8$GT$$GT$$GT$$GT$$GT$17h383a277233d40e8cE"(ptr align 8 %_sink17) #20, !dbg !4575
  br label %bb42, !dbg !4575

bb39:                                             ; preds = %bb37
  %ptr46 = load ptr, ptr %output_capture, align 8, !dbg !4576
  call void @llvm.dbg.declare(metadata ptr poison, metadata !4177, metadata !DIExpression()), !dbg !4577
  call void @llvm.dbg.declare(metadata ptr poison, metadata !4514, metadata !DIExpression()), !dbg !4578
  store ptr %ptr46, ptr %sink, align 8, !dbg !4580
  br label %bb35, !dbg !4581

bb38:                                             ; preds = %bb37
  call void @llvm.trap(), !dbg !4582
  unreachable, !dbg !4582

bb42:                                             ; preds = %bb35
  %20 = call fastcc ptr @"_ZN4core6result19Result$LT$T$C$E$GT$6expect17hf9b00542ab14cb2aE"(i64 0, i64 70) #20, !dbg !4366
  store ptr %20, ptr %_14, align 8, !dbg !4366
  br label %bb41, !dbg !4366

bb41:                                             ; preds = %bb42
  call fastcc void @"_ZN4core3ptr129drop_in_place$LT$core..option..Option$LT$alloc..sync..Arc$LT$std..sync..mutex..Mutex$LT$alloc..vec..Vec$LT$u8$GT$$GT$$GT$$GT$$GT$17h383a277233d40e8cE"(ptr align 8 %_14) #20, !dbg !4583
  br label %bb1, !dbg !4583

bb1:                                              ; preds = %bb41
  %21 = load ptr, ptr %output_capture, align 8, !dbg !4584
  %22 = getelementptr inbounds i8, ptr %main, i64 8, !dbg !4584
  store ptr %21, ptr %22, align 8, !dbg !4584
  %23 = load ptr, ptr %their_packet, align 8, !dbg !4584
  store ptr %23, ptr %main, align 8, !dbg !4584
  call void @llvm.dbg.declare(metadata ptr poison, metadata !4585, metadata !DIExpression()), !dbg !4592
  call void @llvm.dbg.declare(metadata ptr poison, metadata !4463, metadata !DIExpression()), !dbg !4594
  call void @llvm.dbg.declare(metadata ptr poison, metadata !4471, metadata !DIExpression()), !dbg !4596
  %self52 = load ptr, ptr %my_packet, align 8, !dbg !4598
  call void @llvm.dbg.declare(metadata ptr poison, metadata !4480, metadata !DIExpression()), !dbg !4599
  call void @llvm.dbg.declare(metadata ptr poison, metadata !4488, metadata !DIExpression()), !dbg !4601
  %24 = getelementptr inbounds i8, ptr %self52, i64 16, !dbg !4603
  %25 = load ptr, ptr %24, align 8, !dbg !4603
  %26 = ptrtoint ptr %25 to i64, !dbg !4603
  %27 = icmp eq i64 %26, 0, !dbg !4603
  %_21 = select i1 %27, i64 0, i64 1, !dbg !4603
  %28 = icmp eq i64 %_21, 1, !dbg !4604
  br i1 %28, label %bb2, label %bb4, !dbg !4604

bb2:                                              ; preds = %bb1
  call void @llvm.dbg.declare(metadata ptr poison, metadata !3964, metadata !DIExpression()), !dbg !4605
  call void @llvm.dbg.declare(metadata ptr poison, metadata !4606, metadata !DIExpression()), !dbg !4610
  call void @llvm.dbg.declare(metadata ptr poison, metadata !4612, metadata !DIExpression()), !dbg !4616
  call void @llvm.dbg.declare(metadata ptr poison, metadata !4618, metadata !DIExpression()), !dbg !4622
  %29 = getelementptr inbounds i8, ptr %self52, i64 16, !dbg !4624
  %self61 = load ptr, ptr %29, align 8, !dbg !4624
  call void @llvm.dbg.declare(metadata ptr poison, metadata !4625, metadata !DIExpression()), !dbg !4629
  call void @llvm.dbg.declare(metadata ptr poison, metadata !4631, metadata !DIExpression()), !dbg !4635
  %_24 = getelementptr inbounds i8, ptr %self61, i64 16, !dbg !4611
  call void @_ZN3std6thread6scoped9ScopeData29increment_num_running_threads17h7e5a00467d0cdb12E(ptr align 8 %_24) #20, !dbg !4611
  br label %bb3, !dbg !4611

bb4:                                              ; preds = %bb3, %bb1
  %_27.0 = load ptr, ptr %main, align 8, !dbg !4637
  %30 = getelementptr inbounds i8, ptr %main, i64 8, !dbg !4637
  %_27.1 = load ptr, ptr %30, align 8, !dbg !4637
  %main64 = call fastcc align 8 ptr @"_ZN5alloc5boxed12Box$LT$T$GT$3new17ha2f628dc1af82524E"(ptr %_27.0, ptr %_27.1) #20, !dbg !4638
  call void @llvm.dbg.declare(metadata ptr poison, metadata !3966, metadata !DIExpression()), !dbg !4639
  call void @llvm.dbg.declare(metadata ptr poison, metadata !4211, metadata !DIExpression()), !dbg !4640
  call void @llvm.dbg.declare(metadata ptr poison, metadata !4194, metadata !DIExpression()), !dbg !4641
  call void @llvm.dbg.declare(metadata ptr poison, metadata !4642, metadata !DIExpression()), !dbg !4649
  br label %bb5, !dbg !4638

bb3:                                              ; preds = %bb2
  br label %bb4, !dbg !4651

bb5:                                              ; preds = %bb4
  store ptr %main64, ptr %b18, align 8, !dbg !4652
  call void @llvm.dbg.declare(metadata ptr poison, metadata !4653, metadata !DIExpression()), !dbg !4661
  %_106 = load ptr, ptr %b18, align 8, !dbg !4663
  call void @llvm.dbg.declare(metadata ptr poison, metadata !4201, metadata !DIExpression()), !dbg !4664
  call void @llvm.dbg.declare(metadata ptr poison, metadata !4665, metadata !DIExpression()), !dbg !4673
  call void @llvm.dbg.declare(metadata ptr poison, metadata !4449, metadata !DIExpression()), !dbg !4675
  call void @llvm.dbg.declare(metadata ptr poison, metadata !4233, metadata !DIExpression()), !dbg !4677
  call void @llvm.dbg.declare(metadata ptr poison, metadata !4223, metadata !DIExpression()), !dbg !4678
  call void @llvm.dbg.declare(metadata ptr poison, metadata !4679, metadata !DIExpression()), !dbg !4698
  call void @llvm.dbg.declare(metadata ptr poison, metadata !4700, metadata !DIExpression()), !dbg !4707
  br label %bb43, !dbg !4709

bb43:                                             ; preds = %bb5
  call fastcc void @"_ZN4core3ptr8non_null16NonNull$LT$T$GT$13new_unchecked18precondition_check17h15e3f15a9bfd79eaE"(ptr %_106) #20, !dbg !4711
  br label %bb45, !dbg !4712

bb45:                                             ; preds = %bb43
  call void @llvm.dbg.declare(metadata ptr poison, metadata !3969, metadata !DIExpression()), !dbg !4713
  %_34 = load i64, ptr %stack_size14, align 8, !dbg !4714
  %31 = call fastcc { i64, ptr } @_ZN3std3sys3pal4unix6thread6Thread3new17h85f6e72f48bc2d13E(i64 %_34, ptr align 1 %_106) #20, !dbg !4325
  %32 = extractvalue { i64, ptr } %31, 0, !dbg !4325
  %33 = extractvalue { i64, ptr } %31, 1, !dbg !4325
  store i64 %32, ptr %self16, align 8, !dbg !4325
  %34 = getelementptr inbounds i8, ptr %self16, i64 8, !dbg !4325
  store ptr %33, ptr %34, align 8, !dbg !4325
  br label %bb6, !dbg !4325

bb6:                                              ; preds = %bb45
  %_113 = load i64, ptr %self16, align 8, !dbg !4715
  %35 = icmp eq i64 %_113, 0, !dbg !4716
  br i1 %35, label %bb47, label %bb46, !dbg !4716

bb47:                                             ; preds = %bb6
  %36 = getelementptr inbounds i8, ptr %self16, i64 8, !dbg !4717
  %v = load i64, ptr %36, align 8, !dbg !4717
  call void @llvm.dbg.declare(metadata ptr poison, metadata !4320, metadata !DIExpression()), !dbg !4718
  %37 = getelementptr inbounds i8, ptr %_32, i64 8, !dbg !4719
  store i64 %v, ptr %37, align 8, !dbg !4719
  %38 = getelementptr inbounds i8, ptr %_32, i64 8, !dbg !4325
  %val = load i64, ptr %38, align 8, !dbg !4325
  call void @llvm.dbg.declare(metadata ptr poison, metadata !3979, metadata !DIExpression()), !dbg !4720
  store i64 %val, ptr %_31, align 8, !dbg !4720
  store i64 2, ptr %_117, align 8, !dbg !4721
  %_38 = call fastcc ptr @_ZN3std6thread6Thread9new_inner17h8ec1a20b565e8045E(ptr align 8 %_117) #20, !dbg !4726
  br label %bb48, !dbg !4726

bb46:                                             ; preds = %bb6
  %39 = getelementptr inbounds i8, ptr %self16, i64 8, !dbg !4727
  %e = load ptr, ptr %39, align 8, !dbg !4727
  call void @llvm.dbg.declare(metadata ptr poison, metadata !4322, metadata !DIExpression()), !dbg !4728
  store ptr %e, ptr %_116, align 8, !dbg !4729
  %40 = load ptr, ptr %_116, align 8, !dbg !4730
  %41 = getelementptr inbounds i8, ptr %_32, i64 8, !dbg !4730
  store ptr %40, ptr %41, align 8, !dbg !4730
  %42 = getelementptr inbounds i8, ptr %_32, i64 8, !dbg !4731
  %43 = load ptr, ptr %42, align 8, !dbg !4731
  store ptr %43, ptr %residual, align 8, !dbg !4731
  %e73 = load ptr, ptr %residual, align 8, !dbg !4732
  call void @llvm.dbg.declare(metadata ptr poison, metadata !4333, metadata !DIExpression()), !dbg !4733
  call void @llvm.dbg.declare(metadata ptr poison, metadata !4734, metadata !DIExpression()), !dbg !4738
  %44 = getelementptr inbounds i8, ptr %_0, i64 8, !dbg !4740
  store ptr %e73, ptr %44, align 8, !dbg !4740
  store ptr null, ptr %_0, align 8, !dbg !4740
  call fastcc void @"_ZN4core3ptr80drop_in_place$LT$alloc..sync..Arc$LT$std..thread..Packet$LT$$LP$$RP$$GT$$GT$$GT$17h9fbb0c71a37ba120E"(ptr align 8 %my_packet) #20, !dbg !4741
  br label %bb9, !dbg !4741

bb48:                                             ; preds = %bb47
  %_39 = load ptr, ptr %my_packet, align 8, !dbg !4742
  %45 = load i64, ptr %_31, align 8, !dbg !4743
  %46 = getelementptr inbounds i8, ptr %_30, i64 16, !dbg !4743
  store i64 %45, ptr %46, align 8, !dbg !4743
  store ptr %_38, ptr %_30, align 8, !dbg !4743
  %47 = getelementptr inbounds i8, ptr %_30, i64 8, !dbg !4743
  store ptr %_39, ptr %47, align 8, !dbg !4743
  call void @llvm.memcpy.p0.p0.i64(ptr align 8 %_0, ptr align 8 %_30, i64 24, i1 false), !dbg !4744
  call fastcc void @"_ZN4core3ptr70drop_in_place$LT$core..option..Option$LT$alloc..string..String$GT$$GT$17ha7fa3de284cf85f9E"(ptr align 8 %name) #20, !dbg !4745
  br label %bb8, !dbg !4745

bb8:                                              ; preds = %bb48
  br label %bb11, !dbg !4745

bb11:                                             ; preds = %bb10, %bb8
  ret void, !dbg !4746

bb9:                                              ; preds = %bb46
  call fastcc void @"_ZN4core3ptr70drop_in_place$LT$core..option..Option$LT$alloc..string..String$GT$$GT$17ha7fa3de284cf85f9E"(ptr align 8 %name) #20, !dbg !4745
  br label %bb10, !dbg !4745

bb10:                                             ; preds = %bb9
  br label %bb11, !dbg !4745
}

; Function Attrs: alwaysinline nounwind nonlazybind
define internal fastcc align 8 ptr @"_ZN5alloc5boxed12Box$LT$T$GT$3new17h1f548add9fb83d4cE"(ptr align 8 %x) unnamed_addr #3 personality ptr @rust_eh_personality !dbg !4747 {
start:
  call void @llvm.dbg.declare(metadata ptr %x, metadata !4752, metadata !DIExpression()), !dbg !4753
  %_4 = call fastcc ptr @_ZN5alloc5alloc15exchange_malloc17h9abccd67e74de6a5E(i64 48, i64 8) #20, !dbg !4754
  br label %bb1, !dbg !4754

bb1:                                              ; preds = %start
  call void @llvm.memcpy.p0.p0.i64(ptr align 8 %_4, ptr align 8 %x, i64 48, i1 false), !dbg !4755
  ret ptr %_4, !dbg !4756
}

; Function Attrs: alwaysinline nounwind nonlazybind
define internal fastcc void @"_ZN4core3ptr129drop_in_place$LT$core..option..Option$LT$alloc..sync..Arc$LT$std..sync..mutex..Mutex$LT$alloc..vec..Vec$LT$u8$GT$$GT$$GT$$GT$$GT$17h383a277233d40e8cE"(ptr align 8 %_1) unnamed_addr #3 !dbg !4757 {
start:
  call void @llvm.dbg.declare(metadata ptr poison, metadata !4762, metadata !DIExpression()), !dbg !4764
  %0 = load ptr, ptr %_1, align 8, !dbg !4764
  %1 = ptrtoint ptr %0 to i64, !dbg !4764
  %2 = icmp eq i64 %1, 0, !dbg !4764
  %_2 = select i1 %2, i64 0, i64 1, !dbg !4764
  %3 = icmp eq i64 %_2, 0, !dbg !4764
  br i1 %3, label %bb1, label %bb2, !dbg !4764

bb1:                                              ; preds = %bb2, %start
  ret void, !dbg !4764

bb2:                                              ; preds = %start
  call fastcc void @"_ZN4core3ptr101drop_in_place$LT$alloc..sync..Arc$LT$std..sync..mutex..Mutex$LT$alloc..vec..Vec$LT$u8$GT$$GT$$GT$$GT$17h138682f6b079690dE"(ptr align 8 %_1) #20, !dbg !4764
  br label %bb1, !dbg !4764
}

; Function Attrs: cold noreturn nounwind memory(inaccessiblemem: write)
declare void @llvm.trap() #10

; Function Attrs: inlinehint nounwind nonlazybind
define internal fastcc ptr @"_ZN4core6result19Result$LT$T$C$E$GT$6expect17hf9b00542ab14cb2aE"(i64 %0, i64 %msg.1) unnamed_addr #5 personality ptr @rust_eh_personality !dbg !4765 {
start:
  %e = alloca [0 x i8], align 1
  %self = alloca [16 x i8], align 8
  store i64 0, ptr %self, align 8
  %1 = getelementptr inbounds i8, ptr %self, i64 8
  store ptr null, ptr %1, align 8
  call void @llvm.dbg.declare(metadata ptr %self, metadata !4770, metadata !DIExpression()), !dbg !4776
  call void @llvm.dbg.declare(metadata ptr poison, metadata !4771, metadata !DIExpression()), !dbg !4777
  call void @llvm.dbg.declare(metadata ptr %e, metadata !4774, metadata !DIExpression()), !dbg !4778
  %_3 = load i64, ptr %self, align 8, !dbg !4779
  %2 = icmp eq i64 %_3, 0, !dbg !4780
  br i1 %2, label %bb3, label %bb2, !dbg !4780

bb3:                                              ; preds = %start
  %3 = getelementptr inbounds i8, ptr %self, i64 8, !dbg !4781
  %t = load ptr, ptr %3, align 8, !dbg !4781
  call void @llvm.dbg.declare(metadata ptr poison, metadata !4772, metadata !DIExpression()), !dbg !4782
  ret ptr %t, !dbg !4783

bb2:                                              ; preds = %start
  call fastcc void @_ZN4core6result13unwrap_failed17h3b20393b00590665E(ptr align 1 @alloc_2ee7ba9733a263ad3a32ba87b5ec3eae, i64 70, ptr align 1 %e, ptr align 8 @vtable.2, ptr align 8 @alloc_03ba00628e0b55adc6c10b1b665b8e52) #21, !dbg !4784
  unreachable, !dbg !4784
}

; Function Attrs: nounwind nonlazybind
declare void @_ZN3std6thread6scoped9ScopeData29increment_num_running_threads17h7e5a00467d0cdb12E(ptr align 8) unnamed_addr #2

; Function Attrs: alwaysinline nounwind nonlazybind
define internal fastcc align 8 ptr @"_ZN5alloc5boxed12Box$LT$T$GT$3new17ha2f628dc1af82524E"(ptr %0, ptr %1) unnamed_addr #3 personality ptr @rust_eh_personality !dbg !4785 {
start:
  %x = alloca [16 x i8], align 8
  store ptr %0, ptr %x, align 8
  %2 = getelementptr inbounds i8, ptr %x, i64 8
  store ptr %1, ptr %2, align 8
  call void @llvm.dbg.declare(metadata ptr %x, metadata !4789, metadata !DIExpression()), !dbg !4791
  %_4 = call fastcc ptr @_ZN5alloc5alloc15exchange_malloc17h9abccd67e74de6a5E(i64 16, i64 8) #20, !dbg !4792
  br label %bb1, !dbg !4792

bb1:                                              ; preds = %start
  %3 = load ptr, ptr %x, align 8, !dbg !4793
  %4 = getelementptr inbounds i8, ptr %x, i64 8, !dbg !4793
  %5 = load ptr, ptr %4, align 8, !dbg !4793
  store ptr %3, ptr %_4, align 8, !dbg !4793
  %6 = getelementptr inbounds i8, ptr %_4, i64 8, !dbg !4793
  store ptr %5, ptr %6, align 8, !dbg !4793
  ret ptr %_4, !dbg !4794
}

; Function Attrs: alwaysinline nounwind nonlazybind
define internal fastcc { i64, ptr } @_ZN3std3sys3pal4unix6thread6Thread3new17h85f6e72f48bc2d13E(i64 %stack, ptr align 1 %p.0) unnamed_addr #3 !dbg !4795 {
start:
  %slot = alloca [56 x i8], align 8
  %ptr = alloca [8 x i8], align 8
  %_80 = alloca [8 x i8], align 8
  %_79 = alloca [8 x i8], align 8
  %utagged = alloca [8 x i8], align 8
  %_76 = alloca [8 x i8], align 8
  %u14 = alloca [56 x i8], align 8
  %self = alloca [56 x i8], align 8
  %u = alloca [8 x i8], align 8
  %b = alloca [8 x i8], align 8
  %_x = alloca [8 x i8], align 8
  %_42 = alloca [48 x i8], align 8
  %_39 = alloca [4 x i8], align 4
  %_32 = alloca [48 x i8], align 8
  %_29 = alloca [4 x i8], align 4
  %_18 = alloca [48 x i8], align 8
  %n = alloca [4 x i8], align 4
  %_10 = alloca [48 x i8], align 8
  %_7 = alloca [4 x i8], align 4
  %attr = alloca [56 x i8], align 8
  %native = alloca [8 x i8], align 8
  %_0 = alloca [16 x i8], align 8
  call void @llvm.dbg.declare(metadata ptr poison, metadata !4831, metadata !DIExpression()), !dbg !4866
  call void @llvm.dbg.declare(metadata ptr poison, metadata !4832, metadata !DIExpression()), !dbg !4867
  call void @llvm.dbg.declare(metadata ptr poison, metadata !4842, metadata !DIExpression()), !dbg !4868
  call void @llvm.dbg.declare(metadata ptr poison, metadata !4843, metadata !DIExpression()), !dbg !4869
  call void @llvm.dbg.declare(metadata ptr poison, metadata !4853, metadata !DIExpression()), !dbg !4870
  call void @llvm.dbg.declare(metadata ptr poison, metadata !4854, metadata !DIExpression()), !dbg !4871
  call void @llvm.dbg.declare(metadata ptr poison, metadata !4862, metadata !DIExpression()), !dbg !4872
  call void @llvm.dbg.declare(metadata ptr poison, metadata !4863, metadata !DIExpression()), !dbg !4873
  call void @llvm.dbg.declare(metadata ptr poison, metadata !4874, metadata !DIExpression()), !dbg !4898
  call void @llvm.dbg.declare(metadata ptr poison, metadata !4907, metadata !DIExpression()), !dbg !4916
  call void @llvm.dbg.declare(metadata ptr poison, metadata !4915, metadata !DIExpression()), !dbg !4939
  call void @llvm.dbg.declare(metadata ptr poison, metadata !4940, metadata !DIExpression()), !dbg !4948
  call void @llvm.dbg.declare(metadata ptr poison, metadata !4947, metadata !DIExpression()), !dbg !4950
  call void @llvm.dbg.declare(metadata ptr poison, metadata !4951, metadata !DIExpression()), !dbg !4962
  call void @llvm.dbg.declare(metadata ptr poison, metadata !4959, metadata !DIExpression()), !dbg !4985
  call void @llvm.dbg.declare(metadata ptr poison, metadata !4986, metadata !DIExpression()), !dbg !4992
  call void @llvm.dbg.declare(metadata ptr poison, metadata !4991, metadata !DIExpression()), !dbg !4994
  call void @llvm.dbg.declare(metadata ptr poison, metadata !4995, metadata !DIExpression()), !dbg !5003
  call void @llvm.dbg.declare(metadata ptr poison, metadata !5005, metadata !DIExpression()), !dbg !5013
  call void @llvm.dbg.declare(metadata ptr poison, metadata !5015, metadata !DIExpression()), !dbg !5022
  call void @llvm.dbg.declare(metadata ptr poison, metadata !5032, metadata !DIExpression()), !dbg !5042
  call void @llvm.dbg.declare(metadata ptr poison, metadata !4806, metadata !DIExpression()), !dbg !5070
  call void @llvm.dbg.declare(metadata ptr poison, metadata !5002, metadata !DIExpression()), !dbg !5071
  call void @llvm.dbg.declare(metadata ptr poison, metadata !5010, metadata !DIExpression()), !dbg !5072
  call void @llvm.dbg.declare(metadata ptr poison, metadata !4807, metadata !DIExpression()), !dbg !5073
  call void @llvm.dbg.declare(metadata ptr %native, metadata !4811, metadata !DIExpression()), !dbg !5074
  call void @llvm.dbg.declare(metadata ptr %attr, metadata !4813, metadata !DIExpression()), !dbg !5075
  call void @llvm.dbg.declare(metadata ptr %n, metadata !4837, metadata !DIExpression()), !dbg !5076
  call void @llvm.dbg.declare(metadata ptr %_x, metadata !5077, metadata !DIExpression()), !dbg !5083
  call void @llvm.dbg.declare(metadata ptr poison, metadata !5068, metadata !DIExpression()), !dbg !5085
  call void @llvm.dbg.declare(metadata ptr poison, metadata !5053, metadata !DIExpression()), !dbg !5086
  call void @llvm.dbg.declare(metadata ptr %b, metadata !4889, metadata !DIExpression()), !dbg !5087
  call void @llvm.dbg.declare(metadata ptr %u, metadata !4932, metadata !DIExpression()), !dbg !5088
  call void @llvm.dbg.declare(metadata ptr %self, metadata !5089, metadata !DIExpression()), !dbg !5096
  call void @llvm.dbg.declare(metadata ptr %u14, metadata !4978, metadata !DIExpression()), !dbg !5098
  call void @llvm.dbg.declare(metadata ptr %utagged, metadata !5054, metadata !DIExpression()), !dbg !5099
  call void @llvm.dbg.declare(metadata ptr %utagged, metadata !5100, metadata !DIExpression()), !dbg !5106
  call void @llvm.dbg.declare(metadata ptr %ptr, metadata !5108, metadata !DIExpression()), !dbg !5115
  call void @llvm.dbg.declare(metadata ptr %slot, metadata !5117, metadata !DIExpression()), !dbg !5124
  %b15 = call fastcc align 8 ptr @"_ZN5alloc5boxed12Box$LT$T$GT$3new17h665e09fef5056971E"(ptr align 1 %p.0) #20, !dbg !5126
  call void @llvm.dbg.declare(metadata ptr poison, metadata !4905, metadata !DIExpression()), !dbg !5127
  call void @llvm.dbg.declare(metadata ptr poison, metadata !4888, metadata !DIExpression()), !dbg !5128
  call void @llvm.dbg.declare(metadata ptr poison, metadata !5129, metadata !DIExpression()), !dbg !5136
  store ptr %b15, ptr %b, align 8, !dbg !5138
  call void @llvm.dbg.declare(metadata ptr poison, metadata !5139, metadata !DIExpression()), !dbg !5147
  %_54 = load ptr, ptr %b, align 8, !dbg !5149
  call void @llvm.dbg.declare(metadata ptr poison, metadata !4808, metadata !DIExpression()), !dbg !5150
  call void @llvm.dbg.declare(metadata ptr poison, metadata !4895, metadata !DIExpression()), !dbg !5151
  call void @llvm.dbg.declare(metadata ptr poison, metadata !5029, metadata !DIExpression()), !dbg !5152
  call void @llvm.dbg.declare(metadata ptr poison, metadata !5021, metadata !DIExpression()), !dbg !5153
  call void @llvm.dbg.declare(metadata ptr poison, metadata !5154, metadata !DIExpression()), !dbg !5170
  call void @llvm.dbg.declare(metadata ptr poison, metadata !5172, metadata !DIExpression()), !dbg !5179
  call void @llvm.dbg.declare(metadata ptr poison, metadata !5181, metadata !DIExpression()), !dbg !5189
  call void @llvm.dbg.declare(metadata ptr poison, metadata !5191, metadata !DIExpression()), !dbg !5195
  call void @llvm.dbg.declare(metadata ptr poison, metadata !5197, metadata !DIExpression()), !dbg !5205
  call void @llvm.dbg.declare(metadata ptr poison, metadata !4914, metadata !DIExpression()), !dbg !5207
  call void @llvm.dbg.declare(metadata ptr poison, metadata !4946, metadata !DIExpression()), !dbg !5208
  br label %bb22, !dbg !5209

bb22:                                             ; preds = %start
  call fastcc void @_ZN4core10intrinsics11write_bytes18precondition_check17h98cd42f21d9cadf8E(ptr %u, i64 8) #20, !dbg !5211
  br label %bb24, !dbg !5212

bb24:                                             ; preds = %bb22
  call void @llvm.memset.p0.i64(ptr align 8 %u, i8 0, i64 8, i1 false), !dbg !5213
  %self20 = load i64, ptr %u, align 8, !dbg !5214
  call void @llvm.dbg.declare(metadata ptr poison, metadata !5215, metadata !DIExpression()), !dbg !5222
  call void @llvm.dbg.declare(metadata ptr poison, metadata !5224, metadata !DIExpression()), !dbg !5231
  store i64 %self20, ptr %native, align 8, !dbg !5233
  call void @llvm.dbg.declare(metadata ptr poison, metadata !5234, metadata !DIExpression()), !dbg !5242
  call void @llvm.dbg.declare(metadata ptr poison, metadata !4958, metadata !DIExpression()), !dbg !5244
  call void @llvm.dbg.declare(metadata ptr poison, metadata !4990, metadata !DIExpression()), !dbg !5245
  br label %bb26, !dbg !5246

bb26:                                             ; preds = %bb24
  call fastcc void @_ZN4core10intrinsics11write_bytes18precondition_check17h98cd42f21d9cadf8E(ptr %u14, i64 8) #20, !dbg !5248
  br label %bb28, !dbg !5249

bb28:                                             ; preds = %bb26
  call void @llvm.memset.p0.i64(ptr align 8 %u14, i8 0, i64 56, i1 false), !dbg !5250
  call void @llvm.memset.p0.i64(ptr align 8 %attr, i8 0, i64 56, i1 false), !dbg !5251
  %0 = call i32 @pthread_attr_init(ptr %attr) #20, !dbg !5252
  store i32 %0, ptr %_7, align 4, !dbg !5252
  call void @llvm.dbg.declare(metadata ptr poison, metadata !4828, metadata !DIExpression()), !dbg !4866
  %1 = load i32, ptr %_7, align 4, !dbg !4866
  %2 = icmp eq i32 %1, 0, !dbg !4866
  br i1 %2, label %bb3, label %bb4, !dbg !4866

bb3:                                              ; preds = %bb28
  call void @llvm.dbg.declare(metadata ptr poison, metadata !5253, metadata !DIExpression()), !dbg !5260
  %stack_size = call fastcc i64 @_ZN4core3cmp6max_by17hd14e886fec524250E(i64 %stack, i64 16384) #20, !dbg !5262
  call void @llvm.dbg.declare(metadata ptr poison, metadata !4835, metadata !DIExpression()), !dbg !5263
  %_13 = call i32 @pthread_attr_setstacksize(ptr %attr, i64 %stack_size) #20, !dbg !5264
  %3 = icmp eq i32 %_13, 0, !dbg !5265
  br i1 %3, label %bb13, label %bb6, !dbg !5265

bb4:                                              ; preds = %bb28
  store ptr null, ptr %_10, align 8, !dbg !4867
  call fastcc void @_ZN4core9panicking13assert_failed17hf67d7206d9cc7a64E(i8 0, ptr align 4 %_7, ptr align 4 @alloc_83ea17bf0c4f4a5a5a13d3ae7955acd0, ptr align 8 %_10, ptr align 8 @alloc_2f8448eff69a153d9f913e09c261851a) #21, !dbg !4867
  unreachable, !dbg !4867

bb13:                                             ; preds = %bb11, %bb3
  %ret = call i32 @pthread_create(ptr %native, ptr %attr, ptr @_ZN3std3sys3pal4unix6thread6Thread3new12thread_start17h73bb802e724b187bE, ptr %_54) #20, !dbg !5266
  call void @llvm.dbg.declare(metadata ptr poison, metadata !4857, metadata !DIExpression()), !dbg !5267
  %4 = call i32 @pthread_attr_destroy(ptr %attr) #20, !dbg !5268
  store i32 %4, ptr %_39, align 4, !dbg !5268
  call void @llvm.dbg.declare(metadata ptr poison, metadata !4859, metadata !DIExpression()), !dbg !4872
  %5 = load i32, ptr %_39, align 4, !dbg !4872
  %6 = icmp eq i32 %5, 0, !dbg !4872
  br i1 %6, label %bb16, label %bb17, !dbg !4872

bb6:                                              ; preds = %bb3
  store i32 %_13, ptr %n, align 4, !dbg !5269
  call void @llvm.dbg.declare(metadata ptr poison, metadata !4839, metadata !DIExpression()), !dbg !4868
  %7 = icmp eq i32 %_13, 22, !dbg !4868
  br i1 %7, label %bb7, label %bb8, !dbg !4868

bb7:                                              ; preds = %bb6
  %page_size = call i64 @_ZN3std3sys3pal4unix2os9page_size17hbf39952db2c4f5c8E() #20, !dbg !5270
  call void @llvm.dbg.declare(metadata ptr poison, metadata !4846, metadata !DIExpression()), !dbg !5271
  %_22 = add i64 %stack_size, -1, !dbg !5272
  %_21 = add i64 %_22, %page_size, !dbg !5273
  %_26 = add i64 %page_size, -1, !dbg !5274
  %_25 = sub i64 0, %_26, !dbg !5275
  %_23 = add i64 %_25, -1, !dbg !5276
  %stack_size25 = and i64 %_23, %_21, !dbg !5273
  call void @llvm.dbg.declare(metadata ptr poison, metadata !4848, metadata !DIExpression()), !dbg !5277
  %8 = call i32 @pthread_attr_setstacksize(ptr %attr, i64 %stack_size25) #20, !dbg !5278
  store i32 %8, ptr %_29, align 4, !dbg !5278
  call void @llvm.dbg.declare(metadata ptr poison, metadata !4850, metadata !DIExpression()), !dbg !4870
  %9 = load i32, ptr %_29, align 4, !dbg !4870
  %10 = icmp eq i32 %9, 0, !dbg !4870
  br i1 %10, label %bb11, label %bb12, !dbg !4870

bb8:                                              ; preds = %bb6
  store ptr null, ptr %_18, align 8, !dbg !4869
  call fastcc void @_ZN4core9panicking13assert_failed17hf67d7206d9cc7a64E(i8 0, ptr align 4 %n, ptr align 4 @alloc_e66071d94605838e7dc5950cdad7bb3a, ptr align 8 %_18, ptr align 8 @alloc_72ca3e93846fc2f65b7d23a91f1c092a) #21, !dbg !4869
  unreachable, !dbg !4869

bb11:                                             ; preds = %bb7
  br label %bb13, !dbg !5279

bb12:                                             ; preds = %bb7
  store ptr null, ptr %_32, align 8, !dbg !4871
  call fastcc void @_ZN4core9panicking13assert_failed17hf67d7206d9cc7a64E(i8 0, ptr align 4 %_29, ptr align 4 @alloc_83ea17bf0c4f4a5a5a13d3ae7955acd0, ptr align 8 %_32, ptr align 8 @alloc_1344f57768feaf6780907812b147bc1c) #21, !dbg !4871
  unreachable, !dbg !4871

bb16:                                             ; preds = %bb13
  %11 = icmp eq i32 %ret, 0, !dbg !5280
  br i1 %11, label %bb19, label %bb18, !dbg !5280

bb17:                                             ; preds = %bb13
  store ptr null, ptr %_42, align 8, !dbg !4873
  call fastcc void @_ZN4core9panicking13assert_failed17hf67d7206d9cc7a64E(i8 0, ptr align 4 %_39, ptr align 4 @alloc_83ea17bf0c4f4a5a5a13d3ae7955acd0, ptr align 8 %_42, ptr align 8 @alloc_b6ccc1f9f1537e7e6d3c84e4ab130d69) #21, !dbg !4873
  unreachable, !dbg !4873

bb19:                                             ; preds = %bb16
  %_47 = load i64, ptr %native, align 8, !dbg !5281
  %12 = getelementptr inbounds i8, ptr %_0, i64 8, !dbg !5282
  store i64 %_47, ptr %12, align 8, !dbg !5282
  store i64 0, ptr %_0, align 8, !dbg !5282
  br label %bb20, !dbg !5283

bb18:                                             ; preds = %bb16
  br label %bb30, !dbg !5284

bb20:                                             ; preds = %bb35, %bb19
  %13 = load i64, ptr %_0, align 8, !dbg !5286
  %14 = getelementptr inbounds i8, ptr %_0, i64 8, !dbg !5286
  %15 = load ptr, ptr %14, align 8, !dbg !5286
  %16 = insertvalue { i64, ptr } poison, i64 %13, 0, !dbg !5286
  %17 = insertvalue { i64, ptr } %16, ptr %15, 1, !dbg !5286
  ret { i64, ptr } %17, !dbg !5286

bb30:                                             ; preds = %bb18
  call fastcc void @"_ZN4core3ptr8non_null16NonNull$LT$T$GT$13new_unchecked18precondition_check17h15e3f15a9bfd79eaE"(ptr %_54) #20, !dbg !5287
  store ptr %_54, ptr %_76, align 8, !dbg !5288
  %18 = load ptr, ptr %_76, align 8, !dbg !5289
  store ptr %18, ptr %_x, align 8, !dbg !5289
  call fastcc void @"_ZN4core3ptr156drop_in_place$LT$alloc..boxed..Box$LT$alloc..boxed..Box$LT$dyn$u20$core..ops..function..FnOnce$LT$$LP$$RP$$GT$$u2b$Output$u20$$u3d$$u20$$LP$$RP$$GT$$GT$$GT$17hb482589ad690a551E"(ptr align 8 %_x) #20, !dbg !5290
  %19 = sext i32 %ret to i64, !dbg !5291
  store i64 %19, ptr %_80, align 8, !dbg !5291
  %20 = load i64, ptr %_80, align 8, !dbg !5292
  %21 = shl i64 %20, 32, !dbg !5292
  store i64 %21, ptr %_79, align 8, !dbg !5292
  %22 = load i64, ptr %_79, align 8, !dbg !5292
  %23 = or i64 %22, 2, !dbg !5292
  store i64 %23, ptr %utagged, align 8, !dbg !5292
  %24 = load i64, ptr %utagged, align 8, !dbg !5293
  %25 = getelementptr i8, ptr null, i64 %24, !dbg !5293
  store ptr %25, ptr %ptr, align 8, !dbg !5293
  br label %bb34, !dbg !5294

bb34:                                             ; preds = %bb30
  %26 = load ptr, ptr %ptr, align 8, !dbg !5296
  call fastcc void @"_ZN4core3ptr8non_null16NonNull$LT$T$GT$13new_unchecked18precondition_check17h15e3f15a9bfd79eaE"(ptr %26) #20, !dbg !5296
  br label %bb35, !dbg !5296

bb35:                                             ; preds = %bb34
  %_89 = load ptr, ptr %ptr, align 8, !dbg !5297
  call void @llvm.dbg.declare(metadata ptr poison, metadata !5055, metadata !DIExpression()), !dbg !5298
  %27 = getelementptr inbounds i8, ptr %_0, i64 8, !dbg !5299
  store ptr %_89, ptr %27, align 8, !dbg !5299
  store i64 1, ptr %_0, align 8, !dbg !5299
  br label %bb20, !dbg !5283
}

; Function Attrs: alwaysinline nounwind nonlazybind
define internal fastcc ptr @_ZN3std6thread6Thread9new_inner17h8ec1a20b565e8045E(ptr align 8 %name) unnamed_addr #3 personality ptr @rust_eh_personality !dbg !5300 {
start:
  %this = alloca [8 x i8], align 8
  %_26 = alloca [4 x i8], align 4
  %arc = alloca [8 x i8], align 8
  call void @llvm.dbg.declare(metadata ptr poison, metadata !5339, metadata !DIExpression()), !dbg !5348
  call void @llvm.dbg.declare(metadata ptr poison, metadata !5347, metadata !DIExpression()), !dbg !5356
  call void @llvm.dbg.declare(metadata ptr poison, metadata !5357, metadata !DIExpression()), !dbg !5362
  call void @llvm.dbg.declare(metadata ptr poison, metadata !5361, metadata !DIExpression()), !dbg !5364
  call void @llvm.dbg.declare(metadata ptr poison, metadata !5365, metadata !DIExpression()), !dbg !5369
  call void @llvm.dbg.declare(metadata ptr poison, metadata !5371, metadata !DIExpression()), !dbg !5380
  call void @llvm.dbg.declare(metadata ptr poison, metadata !5390, metadata !DIExpression()), !dbg !5398
  call void @llvm.dbg.declare(metadata ptr poison, metadata !5400, metadata !DIExpression()), !dbg !5407
  call void @llvm.dbg.declare(metadata ptr poison, metadata !5419, metadata !DIExpression()), !dbg !5426
  call void @llvm.dbg.declare(metadata ptr poison, metadata !5428, metadata !DIExpression()), !dbg !5438
  call void @llvm.dbg.declare(metadata ptr poison, metadata !5440, metadata !DIExpression()), !dbg !5448
  call void @llvm.dbg.declare(metadata ptr %name, metadata !5305, metadata !DIExpression()), !dbg !5450
  call void @llvm.dbg.declare(metadata ptr %arc, metadata !5308, metadata !DIExpression()), !dbg !5451
  call void @llvm.dbg.declare(metadata ptr poison, metadata !5452, metadata !DIExpression()), !dbg !5459
  call void @llvm.dbg.declare(metadata ptr poison, metadata !5461, metadata !DIExpression()), !dbg !5466
  call void @llvm.dbg.declare(metadata ptr %_26, metadata !5468, metadata !DIExpression()), !dbg !5477
  call void @llvm.dbg.declare(metadata ptr %_26, metadata !5479, metadata !DIExpression()), !dbg !5484
  call void @llvm.dbg.declare(metadata ptr %this, metadata !5486, metadata !DIExpression()), !dbg !5504
  %ptr = call fastcc ptr @"_ZN5alloc4sync12Arc$LT$T$GT$19allocate_for_layout17he13a9347ac8efd7eE"(i64 8, i64 40) #20, !dbg !5506
  call void @llvm.dbg.declare(metadata ptr poison, metadata !5388, metadata !DIExpression()), !dbg !5507
  call void @llvm.dbg.declare(metadata ptr poison, metadata !5379, metadata !DIExpression()), !dbg !5508
  call void @llvm.dbg.declare(metadata ptr poison, metadata !5509, metadata !DIExpression()), !dbg !5516
  br label %bb6, !dbg !5506

bb6:                                              ; preds = %start
  br label %bb7, !dbg !5518

bb7:                                              ; preds = %bb6
  call fastcc void @"_ZN4core3ptr8non_null16NonNull$LT$T$GT$13new_unchecked18precondition_check17h15e3f15a9bfd79eaE"(ptr %ptr) #20, !dbg !5520
  br label %bb9, !dbg !5521

bb9:                                              ; preds = %bb7
  call void @llvm.dbg.declare(metadata ptr poison, metadata !5397, metadata !DIExpression()), !dbg !5522
  store ptr %ptr, ptr %arc, align 8, !dbg !5523
  call void @llvm.dbg.declare(metadata ptr poison, metadata !5524, metadata !DIExpression()), !dbg !5533
  %self = load ptr, ptr %arc, align 8, !dbg !5535
  call void @llvm.dbg.declare(metadata ptr poison, metadata !5536, metadata !DIExpression()), !dbg !5545
  call void @llvm.dbg.declare(metadata ptr poison, metadata !5547, metadata !DIExpression()), !dbg !5554
  %_24 = getelementptr inbounds i8, ptr %self, i64 16, !dbg !5556
  call void @llvm.dbg.declare(metadata ptr poison, metadata !5337, metadata !DIExpression()), !dbg !5557
  call void @llvm.dbg.declare(metadata ptr poison, metadata !5458, metadata !DIExpression()), !dbg !5558
  call void @llvm.dbg.declare(metadata ptr poison, metadata !5465, metadata !DIExpression()), !dbg !5559
  call void @llvm.memmove.p0.p0.i64(ptr align 8 %_24, ptr align 8 %name, i64 24, i1 false), !dbg !5560
  call void @llvm.dbg.declare(metadata ptr poison, metadata !5561, metadata !DIExpression()), !dbg !5571
  call void @llvm.dbg.declare(metadata ptr poison, metadata !5573, metadata !DIExpression()), !dbg !5578
  %val15 = call fastcc i64 @_ZN3std6thread8ThreadId3new17h7aec5be0bc7844dfE() #20, !dbg !5580
  call void @llvm.dbg.declare(metadata ptr poison, metadata !5568, metadata !DIExpression()), !dbg !5581
  call void @llvm.dbg.declare(metadata ptr poison, metadata !5577, metadata !DIExpression()), !dbg !5582
  br label %bb1, !dbg !5580

bb1:                                              ; preds = %bb9
  %0 = getelementptr inbounds i8, ptr %_24, i64 24, !dbg !5583
  store i64 %val15, ptr %0, align 8, !dbg !5583
  call void @llvm.dbg.declare(metadata ptr poison, metadata !5417, metadata !DIExpression()), !dbg !5584
  call void @llvm.dbg.declare(metadata ptr poison, metadata !5474, metadata !DIExpression()), !dbg !5585
  call void @llvm.dbg.declare(metadata ptr poison, metadata !5483, metadata !DIExpression()), !dbg !5586
  store i32 0, ptr %_26, align 4, !dbg !5587
  %1 = getelementptr inbounds i8, ptr %_24, i64 32, !dbg !5588
  call void @llvm.memcpy.p0.p0.i64(ptr align 8 %1, ptr align 4 %_26, i64 4, i1 false), !dbg !5588
  %self16 = load ptr, ptr %arc, align 8, !dbg !5589
  call void @llvm.dbg.declare(metadata ptr poison, metadata !5436, metadata !DIExpression()), !dbg !5590
  call void @llvm.dbg.declare(metadata ptr poison, metadata !5498, metadata !DIExpression()), !dbg !5591
  call void @llvm.dbg.declare(metadata ptr poison, metadata !5592, metadata !DIExpression()), !dbg !5599
  store ptr %self16, ptr %this, align 8, !dbg !5601
  call void @llvm.dbg.declare(metadata ptr poison, metadata !5602, metadata !DIExpression()), !dbg !5612
  %ptr19 = load ptr, ptr %this, align 8, !dbg !5613
  call void @llvm.dbg.declare(metadata ptr poison, metadata !5437, metadata !DIExpression()), !dbg !5614
  call void @llvm.dbg.declare(metadata ptr poison, metadata !5615, metadata !DIExpression()), !dbg !5624
  call void @llvm.dbg.declare(metadata ptr poison, metadata !5543, metadata !DIExpression()), !dbg !5626
  call void @llvm.dbg.declare(metadata ptr poison, metadata !5610, metadata !DIExpression()), !dbg !5628
  call void @llvm.dbg.declare(metadata ptr poison, metadata !5630, metadata !DIExpression()), !dbg !5634
  call void @llvm.dbg.declare(metadata ptr poison, metadata !5447, metadata !DIExpression()), !dbg !5636
  call void @llvm.dbg.declare(metadata ptr poison, metadata !5637, metadata !DIExpression()), !dbg !5645
  call void @llvm.dbg.declare(metadata ptr poison, metadata !5306, metadata !DIExpression()), !dbg !5647
  ret ptr %ptr19, !dbg !5648
}

; Function Attrs: alwaysinline nounwind nonlazybind
define internal fastcc void @"_ZN4core3ptr70drop_in_place$LT$core..option..Option$LT$alloc..string..String$GT$$GT$17ha7fa3de284cf85f9E"(ptr align 8 %_1) unnamed_addr #3 !dbg !5649 {
start:
  call void @llvm.dbg.declare(metadata ptr poison, metadata !5654, metadata !DIExpression()), !dbg !5657
  %0 = load i64, ptr %_1, align 8, !dbg !5657
  %1 = icmp eq i64 %0, -9223372036854775808, !dbg !5657
  %_2 = select i1 %1, i64 0, i64 1, !dbg !5657
  %2 = icmp eq i64 %_2, 0, !dbg !5657
  br i1 %2, label %bb1, label %bb2, !dbg !5657

bb1:                                              ; preds = %bb2, %start
  ret void, !dbg !5657

bb2:                                              ; preds = %start
  call fastcc void @"_ZN4core3ptr42drop_in_place$LT$alloc..string..String$GT$17h15bc248fc8b3f309E"(ptr align 8 %_1) #20, !dbg !5657
  br label %bb1, !dbg !5657
}

; Function Attrs: alwaysinline nounwind nonlazybind
define internal fastcc void @"_ZN4core3ptr42drop_in_place$LT$alloc..string..String$GT$17h15bc248fc8b3f309E"(ptr align 8 %_1) unnamed_addr #3 !dbg !5658 {
start:
  call void @llvm.dbg.declare(metadata ptr poison, metadata !5663, metadata !DIExpression()), !dbg !5664
  call fastcc void @"_ZN4core3ptr46drop_in_place$LT$alloc..vec..Vec$LT$u8$GT$$GT$17h03ec17f487ee1bb5E"(ptr align 8 %_1) #20, !dbg !5664
  ret void, !dbg !5664
}

; Function Attrs: alwaysinline nounwind nonlazybind
define internal fastcc void @"_ZN4core3ptr46drop_in_place$LT$alloc..vec..Vec$LT$u8$GT$$GT$17h03ec17f487ee1bb5E"(ptr align 8 %_1) unnamed_addr #3 !dbg !5665 {
start:
  call void @llvm.dbg.declare(metadata ptr poison, metadata !5670, metadata !DIExpression()), !dbg !5671
  call fastcc void @"_ZN70_$LT$alloc..vec..Vec$LT$T$C$A$GT$$u20$as$u20$core..ops..drop..Drop$GT$4drop17ha6ae2aa0c1ee2e2cE"(ptr align 8 %_1) #20, !dbg !5671
  call fastcc void @"_ZN4core3ptr53drop_in_place$LT$alloc..raw_vec..RawVec$LT$u8$GT$$GT$17he4072cdc4a5a79bfE"(ptr align 8 %_1) #20, !dbg !5671
  ret void, !dbg !5671
}

; Function Attrs: nounwind nonlazybind
define internal fastcc void @"_ZN70_$LT$alloc..vec..Vec$LT$T$C$A$GT$$u20$as$u20$core..ops..drop..Drop$GT$4drop17ha6ae2aa0c1ee2e2cE"(ptr align 8 %self) unnamed_addr #2 !dbg !5672 {
start:
  call void @llvm.dbg.declare(metadata ptr poison, metadata !5679, metadata !DIExpression()), !dbg !5680
  call void @llvm.dbg.declare(metadata ptr poison, metadata !5681, metadata !DIExpression()), !dbg !5688
  call void @llvm.dbg.declare(metadata ptr poison, metadata !5690, metadata !DIExpression()), !dbg !5699
  call void @llvm.dbg.declare(metadata ptr poison, metadata !5701, metadata !DIExpression()), !dbg !5708
  call void @llvm.dbg.declare(metadata ptr poison, metadata !5710, metadata !DIExpression()), !dbg !5714
  call void @llvm.dbg.declare(metadata ptr poison, metadata !5716, metadata !DIExpression()), !dbg !5723
  call void @llvm.dbg.declare(metadata ptr poison, metadata !5725, metadata !DIExpression()), !dbg !5732
  call void @llvm.dbg.declare(metadata ptr poison, metadata !5722, metadata !DIExpression()), !dbg !5734
  call void @llvm.dbg.declare(metadata ptr poison, metadata !5729, metadata !DIExpression()), !dbg !5735
  ret void, !dbg !5736
}

; Function Attrs: alwaysinline nounwind nonlazybind
define internal fastcc void @"_ZN4core3ptr53drop_in_place$LT$alloc..raw_vec..RawVec$LT$u8$GT$$GT$17he4072cdc4a5a79bfE"(ptr align 8 %_1) unnamed_addr #3 !dbg !5737 {
start:
  call void @llvm.dbg.declare(metadata ptr poison, metadata !5742, metadata !DIExpression()), !dbg !5745
  call fastcc void @"_ZN77_$LT$alloc..raw_vec..RawVec$LT$T$C$A$GT$$u20$as$u20$core..ops..drop..Drop$GT$4drop17h03c7cdfef1b78e54E"(ptr align 8 %_1) #20, !dbg !5745
  ret void, !dbg !5745
}

; Function Attrs: nounwind nonlazybind
define internal fastcc void @"_ZN77_$LT$alloc..raw_vec..RawVec$LT$T$C$A$GT$$u20$as$u20$core..ops..drop..Drop$GT$4drop17h03c7cdfef1b78e54E"(ptr align 8 %self) unnamed_addr #2 !dbg !5746 {
start:
  %_2 = alloca [24 x i8], align 8
  call void @llvm.dbg.declare(metadata ptr poison, metadata !5752, metadata !DIExpression()), !dbg !5756
  call fastcc void @"_ZN5alloc7raw_vec19RawVec$LT$T$C$A$GT$14current_memory17h9790eebedd0e9a20E"(ptr noalias align 8 %_2, ptr align 8 %self) #20, !dbg !5757
  %0 = getelementptr inbounds i8, ptr %_2, i64 8, !dbg !5757
  %1 = load i64, ptr %0, align 8, !dbg !5757
  %2 = icmp eq i64 %1, 0, !dbg !5757
  %_4 = select i1 %2, i64 0, i64 1, !dbg !5757
  %3 = icmp eq i64 %_4, 1, !dbg !5758
  br i1 %3, label %bb2, label %bb4, !dbg !5758

bb2:                                              ; preds = %start
  %ptr = load ptr, ptr %_2, align 8, !dbg !5759
  call void @llvm.dbg.declare(metadata ptr poison, metadata !5753, metadata !DIExpression()), !dbg !5759
  %4 = getelementptr inbounds i8, ptr %_2, i64 8, !dbg !5760
  %layout.0 = load i64, ptr %4, align 8, !dbg !5760
  %5 = getelementptr inbounds i8, ptr %4, i64 8, !dbg !5760
  %layout.1 = load i64, ptr %5, align 8, !dbg !5760
  call void @llvm.dbg.declare(metadata ptr poison, metadata !5755, metadata !DIExpression()), !dbg !5760
  %_7 = getelementptr inbounds i8, ptr %self, i64 16, !dbg !5761
  call fastcc void @"_ZN63_$LT$alloc..alloc..Global$u20$as$u20$core..alloc..Allocator$GT$10deallocate17h11895959db45ce84E"(ptr align 1 %_7, ptr %ptr, i64 %layout.0, i64 %layout.1) #20, !dbg !5761
  br label %bb4, !dbg !5762

bb4:                                              ; preds = %bb2, %start
  ret void, !dbg !5763
}

; Function Attrs: nounwind nonlazybind
define internal fastcc void @"_ZN5alloc7raw_vec19RawVec$LT$T$C$A$GT$14current_memory17h9790eebedd0e9a20E"(ptr noalias align 8 %_0, ptr align 8 %self) unnamed_addr #2 !dbg !5764 {
start:
  %_8 = alloca [24 x i8], align 8
  call void @llvm.dbg.declare(metadata ptr poison, metadata !5786, metadata !DIExpression()), !dbg !5793
  br label %bb1, !dbg !5794

bb1:                                              ; preds = %start
  %_2 = load i64, ptr %self, align 8, !dbg !5795
  %0 = icmp eq i64 %_2, 0, !dbg !5795
  br i1 %0, label %bb2, label %bb4, !dbg !5795

bb2:                                              ; preds = %bb1
  br label %bb3, !dbg !5796

bb4:                                              ; preds = %bb1
  call void @llvm.dbg.declare(metadata ptr poison, metadata !5787, metadata !DIExpression()), !dbg !5797
  call void @llvm.dbg.declare(metadata ptr poison, metadata !5798, metadata !DIExpression()), !dbg !5803
  call void @llvm.dbg.declare(metadata ptr poison, metadata !5805, metadata !DIExpression()), !dbg !5809
  call void @llvm.dbg.declare(metadata ptr poison, metadata !5811, metadata !DIExpression()), !dbg !5818
  %rhs = load i64, ptr %self, align 8, !dbg !5820
  call void @llvm.dbg.declare(metadata ptr poison, metadata !5817, metadata !DIExpression()), !dbg !5821
  br label %bb6, !dbg !5822

bb3:                                              ; preds = %bb2
  %1 = getelementptr inbounds i8, ptr %_0, i64 8, !dbg !5824
  store i64 0, ptr %1, align 8, !dbg !5824
  br label %bb5, !dbg !5825

bb6:                                              ; preds = %bb4
  call fastcc void @"_ZN4core3num23_$LT$impl$u20$usize$GT$13unchecked_mul18precondition_check17h5483716b561d752eE"(i64 1, i64 %rhs) #20, !dbg !5826
  br label %bb7, !dbg !5826

bb7:                                              ; preds = %bb6
  call void @llvm.dbg.declare(metadata ptr poison, metadata !5789, metadata !DIExpression()), !dbg !5827
  call void @llvm.dbg.declare(metadata ptr poison, metadata !5802, metadata !DIExpression()), !dbg !5828
  call void @llvm.dbg.declare(metadata ptr poison, metadata !5791, metadata !DIExpression()), !dbg !5829
  %2 = getelementptr inbounds i8, ptr %self, i64 8, !dbg !5830
  %self2 = load ptr, ptr %2, align 8, !dbg !5830
  call void @llvm.dbg.declare(metadata ptr poison, metadata !5831, metadata !DIExpression()), !dbg !5838
  call void @llvm.dbg.declare(metadata ptr poison, metadata !5840, metadata !DIExpression()), !dbg !5847
  call void @llvm.dbg.declare(metadata ptr poison, metadata !5849, metadata !DIExpression()), !dbg !5853
  call void @llvm.dbg.declare(metadata ptr poison, metadata !5855, metadata !DIExpression()), !dbg !5864
  call void @llvm.dbg.declare(metadata ptr poison, metadata !5866, metadata !DIExpression()), !dbg !5870
  call void @llvm.dbg.declare(metadata ptr poison, metadata !5872, metadata !DIExpression()), !dbg !5876
  store ptr %self2, ptr %_8, align 8, !dbg !5878
  %3 = getelementptr inbounds i8, ptr %_8, i64 8, !dbg !5878
  store i64 1, ptr %3, align 8, !dbg !5878
  %4 = getelementptr inbounds i8, ptr %3, i64 8, !dbg !5878
  store i64 %rhs, ptr %4, align 8, !dbg !5878
  call void @llvm.memcpy.p0.p0.i64(ptr align 8 %_0, ptr align 8 %_8, i64 24, i1 false), !dbg !5879
  br label %bb5, !dbg !5825

bb5:                                              ; preds = %bb7, %bb3
  ret void, !dbg !5880
}

; Function Attrs: inlinehint nounwind nonlazybind
define internal fastcc void @"_ZN4core3num23_$LT$impl$u20$usize$GT$13unchecked_mul18precondition_check17h5483716b561d752eE"(i64 %lhs, i64 %rhs) unnamed_addr #5 !dbg !5881 {
start:
  call void @llvm.dbg.declare(metadata ptr poison, metadata !5884, metadata !DIExpression()), !dbg !5886
  call void @llvm.dbg.declare(metadata ptr poison, metadata !5887, metadata !DIExpression()), !dbg !5901
  call void @llvm.dbg.declare(metadata ptr poison, metadata !5885, metadata !DIExpression()), !dbg !5886
  call void @llvm.dbg.declare(metadata ptr poison, metadata !5897, metadata !DIExpression()), !dbg !5904
  call void @llvm.dbg.declare(metadata ptr poison, metadata !5898, metadata !DIExpression()), !dbg !5905
  call void @llvm.dbg.declare(metadata ptr poison, metadata !5900, metadata !DIExpression()), !dbg !5906
  br label %bb2

bb2:                                              ; preds = %start
  ret void, !dbg !5907
}

; Function Attrs: nounwind nonlazybind
define internal fastcc ptr @"_ZN5alloc4sync12Arc$LT$T$GT$19allocate_for_layout17he13a9347ac8efd7eE"(i64 %value_layout.0, i64 %value_layout.1) unnamed_addr #2 personality ptr @rust_eh_personality !dbg !5908 {
start:
  %val = alloca [8 x i8], align 8
  %_21 = alloca [8 x i8], align 8
  %self = alloca [16 x i8], align 8
  %layout = alloca [16 x i8], align 8
  call void @llvm.dbg.declare(metadata ptr poison, metadata !5929, metadata !DIExpression()), !dbg !5965
  call void @llvm.dbg.declare(metadata ptr poison, metadata !5967, metadata !DIExpression()), !dbg !5986
  call void @llvm.dbg.declare(metadata ptr poison, metadata !5988, metadata !DIExpression()), !dbg !5994
  call void @llvm.dbg.declare(metadata ptr poison, metadata !5996, metadata !DIExpression()), !dbg !6002
  call void @llvm.dbg.declare(metadata ptr poison, metadata !5992, metadata !DIExpression()), !dbg !6004
  call void @llvm.dbg.declare(metadata ptr poison, metadata !6000, metadata !DIExpression()), !dbg !6006
  call void @llvm.dbg.declare(metadata ptr poison, metadata !5922, metadata !DIExpression()), !dbg !6008
  call void @llvm.dbg.declare(metadata ptr poison, metadata !5923, metadata !DIExpression()), !dbg !6009
  call void @llvm.dbg.declare(metadata ptr poison, metadata !5924, metadata !DIExpression()), !dbg !6010
  call void @llvm.dbg.declare(metadata ptr %layout, metadata !5925, metadata !DIExpression()), !dbg !6011
  call void @llvm.dbg.declare(metadata ptr %self, metadata !5961, metadata !DIExpression()), !dbg !6012
  call void @llvm.dbg.declare(metadata ptr poison, metadata !5981, metadata !DIExpression()), !dbg !6013
  call void @llvm.dbg.declare(metadata ptr poison, metadata !6014, metadata !DIExpression()), !dbg !6020
  call void @llvm.dbg.declare(metadata ptr poison, metadata !6029, metadata !DIExpression()), !dbg !6034
  call void @llvm.dbg.declare(metadata ptr %val, metadata !6036, metadata !DIExpression()), !dbg !6049
  call void @llvm.dbg.declare(metadata ptr %val, metadata !6051, metadata !DIExpression()), !dbg !6059
  call void @llvm.dbg.declare(metadata ptr %val, metadata !6046, metadata !DIExpression()), !dbg !6061
  call void @llvm.dbg.declare(metadata ptr %val, metadata !6058, metadata !DIExpression()), !dbg !6063
  %0 = call fastcc { i64, i64 } @_ZN5alloc4sync32arcinner_layout_for_value_layout17h115005fbd3436af7E(i64 8, i64 40) #20, !dbg !6065
  %1 = extractvalue { i64, i64 } %0, 0, !dbg !6065
  %2 = extractvalue { i64, i64 } %0, 1, !dbg !6065
  store i64 %1, ptr %layout, align 8, !dbg !6065
  %3 = getelementptr inbounds i8, ptr %layout, i64 8, !dbg !6065
  store i64 %2, ptr %3, align 8, !dbg !6065
  br label %bb1, !dbg !6065

bb1:                                              ; preds = %start
  %_7.0 = load i64, ptr %layout, align 8, !dbg !6066
  %4 = getelementptr inbounds i8, ptr %layout, i64 8, !dbg !6066
  %_7.1 = load i64, ptr %4, align 8, !dbg !6066
  %5 = call fastcc { ptr, i64 } @"_ZN5alloc4sync12Arc$LT$T$GT$10new_uninit28_$u7b$$u7b$closure$u7d$$u7d$17ha0152e432a6f0421E"(i64 %_7.0, i64 %_7.1) #20, !dbg !6066
  %6 = extractvalue { ptr, i64 } %5, 0, !dbg !6066
  %7 = extractvalue { ptr, i64 } %5, 1, !dbg !6066
  store ptr %6, ptr %self, align 8, !dbg !6066
  %8 = getelementptr inbounds i8, ptr %self, i64 8, !dbg !6066
  store i64 %7, ptr %8, align 8, !dbg !6066
  br label %bb2, !dbg !6066

bb2:                                              ; preds = %bb1
  call void @llvm.dbg.declare(metadata ptr poison, metadata !5962, metadata !DIExpression()), !dbg !6067
  call void @llvm.dbg.declare(metadata ptr poison, metadata !6027, metadata !DIExpression(DW_OP_deref)), !dbg !6068
  %9 = load ptr, ptr %self, align 8, !dbg !6069
  %10 = ptrtoint ptr %9 to i64, !dbg !6069
  %11 = icmp eq i64 %10, 0, !dbg !6069
  %_12 = select i1 %11, i64 1, i64 0, !dbg !6069
  %12 = icmp eq i64 %_12, 0, !dbg !6070
  br i1 %12, label %bb10, label %bb9, !dbg !6070

bb10:                                             ; preds = %bb2
  %ptr.0 = load ptr, ptr %self, align 8, !dbg !6071
  call void @llvm.dbg.declare(metadata ptr poison, metadata !5927, metadata !DIExpression()), !dbg !6072
  call void @llvm.dbg.declare(metadata ptr poison, metadata !5963, metadata !DIExpression()), !dbg !6073
  call void @llvm.dbg.declare(metadata ptr poison, metadata !5979, metadata !DIExpression()), !dbg !6074
  call void @llvm.dbg.declare(metadata ptr poison, metadata !6075, metadata !DIExpression()), !dbg !6080
  call void @llvm.dbg.declare(metadata ptr poison, metadata !6082, metadata !DIExpression()), !dbg !6086
  call void @llvm.dbg.declare(metadata ptr poison, metadata !6088, metadata !DIExpression()), !dbg !6092
  call void @llvm.dbg.declare(metadata ptr poison, metadata !5980, metadata !DIExpression(DW_OP_LLVM_fragment, 64, 64)), !dbg !6094
  call void @llvm.dbg.declare(metadata ptr poison, metadata !5980, metadata !DIExpression(DW_OP_LLVM_fragment, 0, 64)), !dbg !6094
  call void @llvm.dbg.declare(metadata ptr poison, metadata !6095, metadata !DIExpression()), !dbg !6099
  %inner = call fastcc ptr @_ZN4core3ops8function6FnOnce9call_once17hfdc50960d4aac1e2E(ptr %ptr.0) #20, !dbg !6101
  call void @llvm.dbg.declare(metadata ptr poison, metadata !5982, metadata !DIExpression()), !dbg !6102
  br label %bb11, !dbg !6101

bb9:                                              ; preds = %bb2
  call void @llvm.dbg.declare(metadata ptr poison, metadata !6103, metadata !DIExpression()), !dbg !6107
  %13 = getelementptr inbounds i8, ptr %layout, i64 8, !dbg !6109
  %_16 = load i64, ptr %13, align 8, !dbg !6109
  call void @llvm.dbg.declare(metadata ptr poison, metadata !6110, metadata !DIExpression()), !dbg !6114
  %self13 = load i64, ptr %layout, align 8, !dbg !6116
  call void @llvm.dbg.declare(metadata ptr poison, metadata !6117, metadata !DIExpression()), !dbg !6121
  store i64 %self13, ptr %_21, align 8, !dbg !6123
  %_22 = load i64, ptr %_21, align 8, !dbg !6123
  %_23 = icmp uge i64 %_22, 1, !dbg !6123
  %_24 = icmp ule i64 %_22, -9223372036854775808, !dbg !6123
  call void @__rust_alloc_error_handler(i64 %_16, i64 %_22) #21, !dbg !6124
  unreachable, !dbg !6124

bb11:                                             ; preds = %bb10
  call void @llvm.dbg.declare(metadata ptr poison, metadata !6043, metadata !DIExpression()), !dbg !6125
  call void @llvm.dbg.declare(metadata ptr poison, metadata !6055, metadata !DIExpression()), !dbg !6126
  store i64 1, ptr %val, align 8, !dbg !6127
  call void @llvm.memcpy.p0.p0.i64(ptr align 8 %inner, ptr align 8 %val, i64 8, i1 false), !dbg !6128
  call void @llvm.dbg.declare(metadata ptr poison, metadata !6044, metadata !DIExpression()), !dbg !6129
  call void @llvm.dbg.declare(metadata ptr poison, metadata !6056, metadata !DIExpression()), !dbg !6130
  %14 = getelementptr inbounds i8, ptr %inner, i64 8, !dbg !6131
  call void @llvm.memcpy.p0.p0.i64(ptr align 8 %14, ptr align 8 %val, i64 8, i1 false), !dbg !6131
  ret ptr %inner, !dbg !6132
}

; Function Attrs: nocallback nofree nounwind willreturn memory(argmem: readwrite)
declare void @llvm.memmove.p0.p0.i64(ptr nocapture writeonly, ptr nocapture readonly, i64, i1 immarg) #8

; Function Attrs: alwaysinline nounwind nonlazybind
define internal fastcc i64 @_ZN3std6thread8ThreadId3new17h7aec5be0bc7844dfE() unnamed_addr #3 !dbg !6133 {
start:
  %0 = alloca [1 x i8], align 1
  %self = alloca [8 x i8], align 8
  %_10 = alloca [8 x i8], align 8
  %_8 = alloca [16 x i8], align 8
  %_6 = alloca [16 x i8], align 8
  %_3 = alloca [8 x i8], align 8
  %last = alloca [8 x i8], align 8
  call void @llvm.dbg.declare(metadata ptr poison, metadata !6144, metadata !DIExpression()), !dbg !6159
  call void @llvm.dbg.declare(metadata ptr poison, metadata !6161, metadata !DIExpression()), !dbg !6180
  call void @llvm.dbg.declare(metadata ptr poison, metadata !6182, metadata !DIExpression()), !dbg !6208
  call void @llvm.dbg.declare(metadata ptr poison, metadata !6207, metadata !DIExpression()), !dbg !6210
  call void @llvm.dbg.declare(metadata ptr %last, metadata !6138, metadata !DIExpression()), !dbg !6211
  call void @llvm.dbg.declare(metadata ptr %self, metadata !6212, metadata !DIExpression()), !dbg !6234
  call void @llvm.memset.p0.i64(ptr align 8 %_3, i8 0, i64 8, i1 false), !dbg !6236
  call void @llvm.dbg.declare(metadata ptr poison, metadata !6158, metadata !DIExpression()), !dbg !6237
  call void @llvm.dbg.declare(metadata ptr poison, metadata !6238, metadata !DIExpression()), !dbg !6248
  %1 = call fastcc i64 @_ZN4core4sync6atomic11atomic_load17hbec0c64cf216298fE(ptr %_3, i8 0) #20, !dbg !6250
  store i64 %1, ptr %last, align 8, !dbg !6250
  br label %bb1, !dbg !6251

bb1:                                              ; preds = %bb3, %start
  %self2 = load i64, ptr %last, align 8, !dbg !6252
  call void @llvm.dbg.declare(metadata ptr poison, metadata !6179, metadata !DIExpression()), !dbg !6253
  %2 = call { i64, i1 } @llvm.uadd.with.overflow.i64(i64 %self2, i64 1), !dbg !6254
  %_21.1 = extractvalue { i64, i1 } %2, 1, !dbg !6254
  %3 = call i1 @llvm.expect.i1(i1 %_21.1, i1 false), !dbg !6255
  %4 = zext i1 %3 to i8, !dbg !6255
  store i8 %4, ptr %0, align 1, !dbg !6255
  %5 = load i8, ptr %0, align 1, !dbg !6255
  %_19 = trunc i8 %5 to i1, !dbg !6255
  br i1 %_19, label %bb7, label %bb8, !dbg !6255

bb8:                                              ; preds = %bb1
  %_22 = add nuw i64 %self2, 1, !dbg !6258
  %6 = getelementptr inbounds i8, ptr %_6, i64 8, !dbg !6259
  store i64 %_22, ptr %6, align 8, !dbg !6259
  %7 = getelementptr inbounds i8, ptr %_6, i64 8, !dbg !6260
  %id = load i64, ptr %7, align 8, !dbg !6260
  call void @llvm.dbg.declare(metadata ptr poison, metadata !6140, metadata !DIExpression()), !dbg !6261
  call void @llvm.dbg.declare(metadata ptr poison, metadata !6206, metadata !DIExpression()), !dbg !6262
  call void @llvm.dbg.declare(metadata ptr poison, metadata !6263, metadata !DIExpression()), !dbg !6271
  call void @llvm.memset.p0.i64(ptr align 8 %_10, i8 0, i64 8, i1 false), !dbg !6273
  call void @llvm.dbg.declare(metadata ptr poison, metadata !6204, metadata !DIExpression()), !dbg !6274
  %current = load i64, ptr %last, align 8, !dbg !6275
  call void @llvm.dbg.declare(metadata ptr poison, metadata !6205, metadata !DIExpression()), !dbg !6276
  call void @llvm.dbg.declare(metadata ptr poison, metadata !6246, metadata !DIExpression()), !dbg !6277
  %8 = call fastcc { i64, i64 } @_ZN4core4sync6atomic28atomic_compare_exchange_weak17h25c7ad8417e53572E(ptr %_10, i64 %current, i64 %id, i8 0, i8 0) #20, !dbg !6279
  %9 = extractvalue { i64, i64 } %8, 0, !dbg !6279
  %10 = extractvalue { i64, i64 } %8, 1, !dbg !6279
  store i64 %9, ptr %_8, align 8, !dbg !6279
  %11 = getelementptr inbounds i8, ptr %_8, i64 8, !dbg !6279
  store i64 %10, ptr %11, align 8, !dbg !6279
  %_12 = load i64, ptr %_8, align 8, !dbg !6273
  %12 = icmp eq i64 %_12, 0, !dbg !6280
  br i1 %12, label %bb4, label %bb3, !dbg !6280

bb7:                                              ; preds = %bb1
  call fastcc void @_ZN3std6thread8ThreadId3new9exhausted17h9b7c0d8a7ebd066cE() #21, !dbg !6281
  unreachable, !dbg !6281

bb4:                                              ; preds = %bb8
  store i64 %id, ptr %self, align 8, !dbg !6282
  %13 = load i64, ptr %self, align 8, !dbg !6283
  %14 = icmp eq i64 %13, 0, !dbg !6283
  %_26 = select i1 %14, i64 0, i64 1, !dbg !6283
  %15 = icmp eq i64 %_26, 0, !dbg !6284
  br i1 %15, label %bb10, label %bb11, !dbg !6284

bb3:                                              ; preds = %bb8
  %16 = getelementptr inbounds i8, ptr %_8, i64 8, !dbg !6285
  %id6 = load i64, ptr %16, align 8, !dbg !6285
  call void @llvm.dbg.declare(metadata ptr poison, metadata !6142, metadata !DIExpression()), !dbg !6286
  store i64 %id6, ptr %last, align 8, !dbg !6287
  br label %bb1, !dbg !6251

bb10:                                             ; preds = %bb4
  call void @_ZN4core6option13unwrap_failed17h0f3641bcb4b94e3eE(ptr align 8 @alloc_716972c7be8563497d93eab2a43fa5a6) #21, !dbg !6288
  unreachable, !dbg !6288

bb11:                                             ; preds = %bb4
  %val = load i64, ptr %self, align 8, !dbg !6289
  call void @llvm.dbg.declare(metadata ptr poison, metadata !6232, metadata !DIExpression()), !dbg !6290
  ret i64 %val, !dbg !6291
}

; Function Attrs: nocallback nofree nounwind willreturn memory(argmem: write)
declare void @llvm.memset.p0.i64(ptr nocapture writeonly, i8, i64, i1 immarg) #11

; Function Attrs: inlinehint nounwind nonlazybind
define internal fastcc i64 @_ZN4core4sync6atomic11atomic_load17hbec0c64cf216298fE(ptr %dst, i8 %0) unnamed_addr #5 !dbg !6292 {
start:
  %dst.dbg.spill = alloca [8 x i8], align 8
  %_7 = alloca [48 x i8], align 8
  %_5 = alloca [48 x i8], align 8
  %_0 = alloca [8 x i8], align 8
  %order = alloca [1 x i8], align 1
  %pieces.dbg.spill1 = alloca [8 x i8], align 8
  %pieces.dbg.spill = alloca [8 x i8], align 8
  store ptr @alloc_7e8e9a1d4bc7d0bbec692f0a50681e22, ptr %pieces.dbg.spill, align 8, !dbg !6299
  call void @llvm.dbg.declare(metadata ptr %pieces.dbg.spill, metadata !6303, metadata !DIExpression()), !dbg !6299
  store ptr @alloc_cf8f91dd8bc9347b20052f6ccc905cd7, ptr %pieces.dbg.spill1, align 8, !dbg !6308
  call void @llvm.dbg.declare(metadata ptr %pieces.dbg.spill1, metadata !6304, metadata !DIExpression()), !dbg !6308
  store i8 0, ptr %order, align 1, !dbg !6308
  store ptr %dst, ptr %dst.dbg.spill, align 8, !dbg !6308
  call void @llvm.dbg.declare(metadata ptr %dst.dbg.spill, metadata !6297, metadata !DIExpression()), !dbg !6309
  call void @llvm.dbg.declare(metadata ptr %order, metadata !6298, metadata !DIExpression()), !dbg !6310
  %1 = load i8, ptr %order, align 1, !dbg !6311
  %_3 = zext i8 %1 to i64, !dbg !6311
  switch i64 %_3, label %bb1 [
    i64 0, label %bb3
    i64 1, label %bb6
    i64 2, label %bb4
    i64 3, label %bb2
    i64 4, label %bb5
  ], !dbg !6312

bb1:                                              ; preds = %start
  unreachable, !dbg !6311

bb3:                                              ; preds = %start
  %2 = load atomic i64, ptr %dst monotonic, align 8, !dbg !6313
  store i64 %2, ptr %_0, align 8, !dbg !6313
  br label %bb7, !dbg !6313

bb6:                                              ; preds = %start
  store ptr @alloc_cf8f91dd8bc9347b20052f6ccc905cd7, ptr %_5, align 8, !dbg !6314
  %3 = getelementptr inbounds i8, ptr %_5, i64 8, !dbg !6314
  store i64 1, ptr %3, align 8, !dbg !6314
  %4 = getelementptr inbounds i8, ptr %_5, i64 32, !dbg !6314
  store ptr null, ptr %4, align 8, !dbg !6314
  %5 = getelementptr inbounds i8, ptr %4, i64 8, !dbg !6314
  store i64 undef, ptr %5, align 8, !dbg !6314
  %6 = getelementptr inbounds i8, ptr %_5, i64 16, !dbg !6314
  store ptr inttoptr (i64 8 to ptr), ptr %6, align 8, !dbg !6314
  %7 = getelementptr inbounds i8, ptr %6, i64 8, !dbg !6314
  store i64 0, ptr %7, align 8, !dbg !6314
  call void @_ZN4core9panicking9panic_fmt17h23b950b84eaab9d4E(ptr align 8 %_5, ptr align 8 @alloc_20de7b3ea271afbde6a21b8e0cfc3c3c) #21, !dbg !6315
  unreachable, !dbg !6315

bb4:                                              ; preds = %start
  %8 = load atomic i64, ptr %dst acquire, align 8, !dbg !6316
  store i64 %8, ptr %_0, align 8, !dbg !6316
  br label %bb7, !dbg !6316

bb2:                                              ; preds = %start
  store ptr @alloc_7e8e9a1d4bc7d0bbec692f0a50681e22, ptr %_7, align 8, !dbg !6317
  %9 = getelementptr inbounds i8, ptr %_7, i64 8, !dbg !6317
  store i64 1, ptr %9, align 8, !dbg !6317
  %10 = getelementptr inbounds i8, ptr %_7, i64 32, !dbg !6317
  store ptr null, ptr %10, align 8, !dbg !6317
  %11 = getelementptr inbounds i8, ptr %10, i64 8, !dbg !6317
  store i64 undef, ptr %11, align 8, !dbg !6317
  %12 = getelementptr inbounds i8, ptr %_7, i64 16, !dbg !6317
  store ptr inttoptr (i64 8 to ptr), ptr %12, align 8, !dbg !6317
  %13 = getelementptr inbounds i8, ptr %12, i64 8, !dbg !6317
  store i64 0, ptr %13, align 8, !dbg !6317
  call void @_ZN4core9panicking9panic_fmt17h23b950b84eaab9d4E(ptr align 8 %_7, ptr align 8 @alloc_83c68d497b94097f7e5228337b3609c0) #21, !dbg !6318
  unreachable, !dbg !6318

bb5:                                              ; preds = %start
  %14 = load atomic i64, ptr %dst seq_cst, align 8, !dbg !6319
  store i64 %14, ptr %_0, align 8, !dbg !6319
  br label %bb7, !dbg !6319

bb7:                                              ; preds = %bb5, %bb4, %bb3
  %15 = load i64, ptr %_0, align 8, !dbg !6320
  ret i64 %15, !dbg !6320
}

; Function Attrs: nocallback nofree nosync nounwind speculatable willreturn memory(none)
declare { i64, i1 } @llvm.uadd.with.overflow.i64(i64, i64) #1

; Function Attrs: nocallback nofree nosync nounwind willreturn memory(none)
declare i1 @llvm.expect.i1(i1, i1) #12

; Function Attrs: inlinehint nounwind nonlazybind
define internal fastcc { i64, i64 } @_ZN4core4sync6atomic28atomic_compare_exchange_weak17h25c7ad8417e53572E(ptr %dst, i64 %old, i64 %new, i8 %0, i8 %1) unnamed_addr #5 !dbg !6321 {
start:
  %new.dbg.spill = alloca [8 x i8], align 8
  %old.dbg.spill = alloca [8 x i8], align 8
  %dst.dbg.spill = alloca [8 x i8], align 8
  %_19 = alloca [48 x i8], align 8
  %_17 = alloca [48 x i8], align 8
  %_8 = alloca [16 x i8], align 8
  %_0 = alloca [16 x i8], align 8
  %failure = alloca [1 x i8], align 1
  %success = alloca [1 x i8], align 1
  %pieces.dbg.spill1 = alloca [8 x i8], align 8
  %pieces.dbg.spill = alloca [8 x i8], align 8
  store ptr @alloc_04ab601c54c6e0a22ff11d72dc7f4511, ptr %pieces.dbg.spill, align 8, !dbg !6333
  call void @llvm.dbg.declare(metadata ptr %pieces.dbg.spill, metadata !6337, metadata !DIExpression()), !dbg !6333
  store ptr @alloc_dd7d8f77c173bf31726eae321f955bec, ptr %pieces.dbg.spill1, align 8, !dbg !6342
  call void @llvm.dbg.declare(metadata ptr %pieces.dbg.spill1, metadata !6338, metadata !DIExpression()), !dbg !6342
  store i8 0, ptr %success, align 1, !dbg !6342
  store i8 0, ptr %failure, align 1, !dbg !6342
  store ptr %dst, ptr %dst.dbg.spill, align 8, !dbg !6342
  call void @llvm.dbg.declare(metadata ptr %dst.dbg.spill, metadata !6325, metadata !DIExpression()), !dbg !6343
  store i64 %old, ptr %old.dbg.spill, align 8, !dbg !6342
  call void @llvm.dbg.declare(metadata ptr %old.dbg.spill, metadata !6326, metadata !DIExpression()), !dbg !6344
  store i64 %new, ptr %new.dbg.spill, align 8, !dbg !6342
  call void @llvm.dbg.declare(metadata ptr %new.dbg.spill, metadata !6327, metadata !DIExpression()), !dbg !6345
  call void @llvm.dbg.declare(metadata ptr %success, metadata !6328, metadata !DIExpression()), !dbg !6346
  call void @llvm.dbg.declare(metadata ptr %failure, metadata !6329, metadata !DIExpression()), !dbg !6347
  %2 = load i8, ptr %success, align 1, !dbg !6348
  %_14 = zext i8 %2 to i64, !dbg !6348
  switch i64 %_14, label %bb7 [
    i64 0, label %bb2
    i64 1, label %bb4
    i64 2, label %bb3
    i64 3, label %bb5
    i64 4, label %bb6
  ], !dbg !6349

bb7:                                              ; preds = %start
  unreachable, !dbg !6348

bb2:                                              ; preds = %start
  %3 = load i8, ptr %failure, align 1, !dbg !6348
  %_9 = zext i8 %3 to i64, !dbg !6348
  switch i64 %_9, label %bb1 [
    i64 0, label %bb9
    i64 2, label %bb10
    i64 4, label %bb11
  ], !dbg !6349

bb4:                                              ; preds = %start
  %4 = load i8, ptr %failure, align 1, !dbg !6348
  %_11 = zext i8 %4 to i64, !dbg !6348
  switch i64 %_11, label %bb1 [
    i64 0, label %bb15
    i64 2, label %bb16
    i64 4, label %bb17
  ], !dbg !6349

bb3:                                              ; preds = %start
  %5 = load i8, ptr %failure, align 1, !dbg !6348
  %_10 = zext i8 %5 to i64, !dbg !6348
  switch i64 %_10, label %bb1 [
    i64 0, label %bb12
    i64 2, label %bb13
    i64 4, label %bb14
  ], !dbg !6349

bb5:                                              ; preds = %start
  %6 = load i8, ptr %failure, align 1, !dbg !6348
  %_12 = zext i8 %6 to i64, !dbg !6348
  switch i64 %_12, label %bb1 [
    i64 0, label %bb18
    i64 2, label %bb19
    i64 4, label %bb20
  ], !dbg !6349

bb6:                                              ; preds = %start
  %7 = load i8, ptr %failure, align 1, !dbg !6348
  %_13 = zext i8 %7 to i64, !dbg !6348
  switch i64 %_13, label %bb1 [
    i64 0, label %bb21
    i64 2, label %bb22
    i64 4, label %bb23
  ], !dbg !6349

bb1:                                              ; preds = %bb6, %bb5, %bb3, %bb4, %bb2
  %8 = load i8, ptr %failure, align 1, !dbg !6348
  %_15 = zext i8 %8 to i64, !dbg !6348
  %9 = icmp eq i64 %_15, 1, !dbg !6349
  br i1 %9, label %bb8, label %bb24, !dbg !6349

bb9:                                              ; preds = %bb2
  %10 = cmpxchg weak ptr %dst, i64 %old, i64 %new monotonic monotonic, align 8, !dbg !6350
  %11 = extractvalue { i64, i1 } %10, 0, !dbg !6350
  %12 = extractvalue { i64, i1 } %10, 1, !dbg !6350
  %13 = zext i1 %12 to i8, !dbg !6350
  store i64 %11, ptr %_8, align 8, !dbg !6350
  %14 = getelementptr inbounds i8, ptr %_8, i64 8, !dbg !6350
  store i8 %13, ptr %14, align 8, !dbg !6350
  br label %bb25, !dbg !6350

bb10:                                             ; preds = %bb2
  %15 = cmpxchg weak ptr %dst, i64 %old, i64 %new monotonic acquire, align 8, !dbg !6351
  %16 = extractvalue { i64, i1 } %15, 0, !dbg !6351
  %17 = extractvalue { i64, i1 } %15, 1, !dbg !6351
  %18 = zext i1 %17 to i8, !dbg !6351
  store i64 %16, ptr %_8, align 8, !dbg !6351
  %19 = getelementptr inbounds i8, ptr %_8, i64 8, !dbg !6351
  store i8 %18, ptr %19, align 8, !dbg !6351
  br label %bb25, !dbg !6351

bb11:                                             ; preds = %bb2
  %20 = cmpxchg weak ptr %dst, i64 %old, i64 %new monotonic seq_cst, align 8, !dbg !6352
  %21 = extractvalue { i64, i1 } %20, 0, !dbg !6352
  %22 = extractvalue { i64, i1 } %20, 1, !dbg !6352
  %23 = zext i1 %22 to i8, !dbg !6352
  store i64 %21, ptr %_8, align 8, !dbg !6352
  %24 = getelementptr inbounds i8, ptr %_8, i64 8, !dbg !6352
  store i8 %23, ptr %24, align 8, !dbg !6352
  br label %bb25, !dbg !6352

bb25:                                             ; preds = %bb23, %bb22, %bb21, %bb20, %bb19, %bb18, %bb14, %bb13, %bb12, %bb17, %bb16, %bb15, %bb11, %bb10, %bb9
  %val = load i64, ptr %_8, align 8, !dbg !6353
  call void @llvm.dbg.declare(metadata ptr poison, metadata !6330, metadata !DIExpression()), !dbg !6354
  %25 = getelementptr inbounds i8, ptr %_8, i64 8, !dbg !6355
  %26 = load i8, ptr %25, align 8, !dbg !6355
  %ok = trunc i8 %26 to i1, !dbg !6355
  call void @llvm.dbg.declare(metadata ptr poison, metadata !6332, metadata !DIExpression()), !dbg !6356
  br i1 %ok, label %bb26, label %bb27, !dbg !6357

bb15:                                             ; preds = %bb4
  %27 = cmpxchg weak ptr %dst, i64 %old, i64 %new release monotonic, align 8, !dbg !6358
  %28 = extractvalue { i64, i1 } %27, 0, !dbg !6358
  %29 = extractvalue { i64, i1 } %27, 1, !dbg !6358
  %30 = zext i1 %29 to i8, !dbg !6358
  store i64 %28, ptr %_8, align 8, !dbg !6358
  %31 = getelementptr inbounds i8, ptr %_8, i64 8, !dbg !6358
  store i8 %30, ptr %31, align 8, !dbg !6358
  br label %bb25, !dbg !6358

bb16:                                             ; preds = %bb4
  %32 = cmpxchg weak ptr %dst, i64 %old, i64 %new release acquire, align 8, !dbg !6359
  %33 = extractvalue { i64, i1 } %32, 0, !dbg !6359
  %34 = extractvalue { i64, i1 } %32, 1, !dbg !6359
  %35 = zext i1 %34 to i8, !dbg !6359
  store i64 %33, ptr %_8, align 8, !dbg !6359
  %36 = getelementptr inbounds i8, ptr %_8, i64 8, !dbg !6359
  store i8 %35, ptr %36, align 8, !dbg !6359
  br label %bb25, !dbg !6359

bb17:                                             ; preds = %bb4
  %37 = cmpxchg weak ptr %dst, i64 %old, i64 %new release seq_cst, align 8, !dbg !6360
  %38 = extractvalue { i64, i1 } %37, 0, !dbg !6360
  %39 = extractvalue { i64, i1 } %37, 1, !dbg !6360
  %40 = zext i1 %39 to i8, !dbg !6360
  store i64 %38, ptr %_8, align 8, !dbg !6360
  %41 = getelementptr inbounds i8, ptr %_8, i64 8, !dbg !6360
  store i8 %40, ptr %41, align 8, !dbg !6360
  br label %bb25, !dbg !6360

bb12:                                             ; preds = %bb3
  %42 = cmpxchg weak ptr %dst, i64 %old, i64 %new acquire monotonic, align 8, !dbg !6361
  %43 = extractvalue { i64, i1 } %42, 0, !dbg !6361
  %44 = extractvalue { i64, i1 } %42, 1, !dbg !6361
  %45 = zext i1 %44 to i8, !dbg !6361
  store i64 %43, ptr %_8, align 8, !dbg !6361
  %46 = getelementptr inbounds i8, ptr %_8, i64 8, !dbg !6361
  store i8 %45, ptr %46, align 8, !dbg !6361
  br label %bb25, !dbg !6361

bb13:                                             ; preds = %bb3
  %47 = cmpxchg weak ptr %dst, i64 %old, i64 %new acquire acquire, align 8, !dbg !6362
  %48 = extractvalue { i64, i1 } %47, 0, !dbg !6362
  %49 = extractvalue { i64, i1 } %47, 1, !dbg !6362
  %50 = zext i1 %49 to i8, !dbg !6362
  store i64 %48, ptr %_8, align 8, !dbg !6362
  %51 = getelementptr inbounds i8, ptr %_8, i64 8, !dbg !6362
  store i8 %50, ptr %51, align 8, !dbg !6362
  br label %bb25, !dbg !6362

bb14:                                             ; preds = %bb3
  %52 = cmpxchg weak ptr %dst, i64 %old, i64 %new acquire seq_cst, align 8, !dbg !6363
  %53 = extractvalue { i64, i1 } %52, 0, !dbg !6363
  %54 = extractvalue { i64, i1 } %52, 1, !dbg !6363
  %55 = zext i1 %54 to i8, !dbg !6363
  store i64 %53, ptr %_8, align 8, !dbg !6363
  %56 = getelementptr inbounds i8, ptr %_8, i64 8, !dbg !6363
  store i8 %55, ptr %56, align 8, !dbg !6363
  br label %bb25, !dbg !6363

bb18:                                             ; preds = %bb5
  %57 = cmpxchg weak ptr %dst, i64 %old, i64 %new acq_rel monotonic, align 8, !dbg !6364
  %58 = extractvalue { i64, i1 } %57, 0, !dbg !6364
  %59 = extractvalue { i64, i1 } %57, 1, !dbg !6364
  %60 = zext i1 %59 to i8, !dbg !6364
  store i64 %58, ptr %_8, align 8, !dbg !6364
  %61 = getelementptr inbounds i8, ptr %_8, i64 8, !dbg !6364
  store i8 %60, ptr %61, align 8, !dbg !6364
  br label %bb25, !dbg !6364

bb19:                                             ; preds = %bb5
  %62 = cmpxchg weak ptr %dst, i64 %old, i64 %new acq_rel acquire, align 8, !dbg !6365
  %63 = extractvalue { i64, i1 } %62, 0, !dbg !6365
  %64 = extractvalue { i64, i1 } %62, 1, !dbg !6365
  %65 = zext i1 %64 to i8, !dbg !6365
  store i64 %63, ptr %_8, align 8, !dbg !6365
  %66 = getelementptr inbounds i8, ptr %_8, i64 8, !dbg !6365
  store i8 %65, ptr %66, align 8, !dbg !6365
  br label %bb25, !dbg !6365

bb20:                                             ; preds = %bb5
  %67 = cmpxchg weak ptr %dst, i64 %old, i64 %new acq_rel seq_cst, align 8, !dbg !6366
  %68 = extractvalue { i64, i1 } %67, 0, !dbg !6366
  %69 = extractvalue { i64, i1 } %67, 1, !dbg !6366
  %70 = zext i1 %69 to i8, !dbg !6366
  store i64 %68, ptr %_8, align 8, !dbg !6366
  %71 = getelementptr inbounds i8, ptr %_8, i64 8, !dbg !6366
  store i8 %70, ptr %71, align 8, !dbg !6366
  br label %bb25, !dbg !6366

bb21:                                             ; preds = %bb6
  %72 = cmpxchg weak ptr %dst, i64 %old, i64 %new seq_cst monotonic, align 8, !dbg !6367
  %73 = extractvalue { i64, i1 } %72, 0, !dbg !6367
  %74 = extractvalue { i64, i1 } %72, 1, !dbg !6367
  %75 = zext i1 %74 to i8, !dbg !6367
  store i64 %73, ptr %_8, align 8, !dbg !6367
  %76 = getelementptr inbounds i8, ptr %_8, i64 8, !dbg !6367
  store i8 %75, ptr %76, align 8, !dbg !6367
  br label %bb25, !dbg !6367

bb22:                                             ; preds = %bb6
  %77 = cmpxchg weak ptr %dst, i64 %old, i64 %new seq_cst acquire, align 8, !dbg !6368
  %78 = extractvalue { i64, i1 } %77, 0, !dbg !6368
  %79 = extractvalue { i64, i1 } %77, 1, !dbg !6368
  %80 = zext i1 %79 to i8, !dbg !6368
  store i64 %78, ptr %_8, align 8, !dbg !6368
  %81 = getelementptr inbounds i8, ptr %_8, i64 8, !dbg !6368
  store i8 %80, ptr %81, align 8, !dbg !6368
  br label %bb25, !dbg !6368

bb23:                                             ; preds = %bb6
  %82 = cmpxchg weak ptr %dst, i64 %old, i64 %new seq_cst seq_cst, align 8, !dbg !6369
  %83 = extractvalue { i64, i1 } %82, 0, !dbg !6369
  %84 = extractvalue { i64, i1 } %82, 1, !dbg !6369
  %85 = zext i1 %84 to i8, !dbg !6369
  store i64 %83, ptr %_8, align 8, !dbg !6369
  %86 = getelementptr inbounds i8, ptr %_8, i64 8, !dbg !6369
  store i8 %85, ptr %86, align 8, !dbg !6369
  br label %bb25, !dbg !6369

bb27:                                             ; preds = %bb25
  %87 = getelementptr inbounds i8, ptr %_0, i64 8, !dbg !6370
  store i64 %val, ptr %87, align 8, !dbg !6370
  store i64 1, ptr %_0, align 8, !dbg !6370
  br label %bb28, !dbg !6371

bb26:                                             ; preds = %bb25
  %88 = getelementptr inbounds i8, ptr %_0, i64 8, !dbg !6372
  store i64 %val, ptr %88, align 8, !dbg !6372
  store i64 0, ptr %_0, align 8, !dbg !6372
  br label %bb28, !dbg !6371

bb28:                                             ; preds = %bb26, %bb27
  %89 = load i64, ptr %_0, align 8, !dbg !6373
  %90 = getelementptr inbounds i8, ptr %_0, i64 8, !dbg !6373
  %91 = load i64, ptr %90, align 8, !dbg !6373
  %92 = insertvalue { i64, i64 } poison, i64 %89, 0, !dbg !6373
  %93 = insertvalue { i64, i64 } %92, i64 %91, 1, !dbg !6373
  ret { i64, i64 } %93, !dbg !6373

bb8:                                              ; preds = %bb1
  store ptr @alloc_04ab601c54c6e0a22ff11d72dc7f4511, ptr %_19, align 8, !dbg !6374
  %94 = getelementptr inbounds i8, ptr %_19, i64 8, !dbg !6374
  store i64 1, ptr %94, align 8, !dbg !6374
  %95 = getelementptr inbounds i8, ptr %_19, i64 32, !dbg !6374
  store ptr null, ptr %95, align 8, !dbg !6374
  %96 = getelementptr inbounds i8, ptr %95, i64 8, !dbg !6374
  store i64 undef, ptr %96, align 8, !dbg !6374
  %97 = getelementptr inbounds i8, ptr %_19, i64 16, !dbg !6374
  store ptr inttoptr (i64 8 to ptr), ptr %97, align 8, !dbg !6374
  %98 = getelementptr inbounds i8, ptr %97, i64 8, !dbg !6374
  store i64 0, ptr %98, align 8, !dbg !6374
  call void @_ZN4core9panicking9panic_fmt17h23b950b84eaab9d4E(ptr align 8 %_19, ptr align 8 @alloc_61d1bd7ca24904dee30b7f3a59b8ac1f) #21, !dbg !6375
  unreachable, !dbg !6375

bb24:                                             ; preds = %bb1
  store ptr @alloc_dd7d8f77c173bf31726eae321f955bec, ptr %_17, align 8, !dbg !6376
  %99 = getelementptr inbounds i8, ptr %_17, i64 8, !dbg !6376
  store i64 1, ptr %99, align 8, !dbg !6376
  %100 = getelementptr inbounds i8, ptr %_17, i64 32, !dbg !6376
  store ptr null, ptr %100, align 8, !dbg !6376
  %101 = getelementptr inbounds i8, ptr %100, i64 8, !dbg !6376
  store i64 undef, ptr %101, align 8, !dbg !6376
  %102 = getelementptr inbounds i8, ptr %_17, i64 16, !dbg !6376
  store ptr inttoptr (i64 8 to ptr), ptr %102, align 8, !dbg !6376
  %103 = getelementptr inbounds i8, ptr %102, i64 8, !dbg !6376
  store i64 0, ptr %103, align 8, !dbg !6376
  call void @_ZN4core9panicking9panic_fmt17h23b950b84eaab9d4E(ptr align 8 %_17, ptr align 8 @alloc_631f920c080d001ae4058cb0cb27f095) #21, !dbg !6377
  unreachable, !dbg !6377
}

; Function Attrs: alwaysinline cold noreturn nounwind nonlazybind
define internal fastcc void @_ZN3std6thread8ThreadId3new9exhausted17h9b7c0d8a7ebd066cE() unnamed_addr #9 !dbg !6378 {
start:
  %_2 = alloca [48 x i8], align 8
  call void @llvm.dbg.declare(metadata ptr poison, metadata !6381, metadata !DIExpression()), !dbg !6385
  store ptr @alloc_adc1a5739c6e99d0e8df839b124d9459, ptr %_2, align 8, !dbg !6388
  %0 = getelementptr inbounds i8, ptr %_2, i64 8, !dbg !6388
  store i64 1, ptr %0, align 8, !dbg !6388
  %1 = getelementptr inbounds i8, ptr %_2, i64 32, !dbg !6388
  store ptr null, ptr %1, align 8, !dbg !6388
  %2 = getelementptr inbounds i8, ptr %1, i64 8, !dbg !6388
  store i64 undef, ptr %2, align 8, !dbg !6388
  %3 = getelementptr inbounds i8, ptr %_2, i64 16, !dbg !6388
  store ptr inttoptr (i64 8 to ptr), ptr %3, align 8, !dbg !6388
  %4 = getelementptr inbounds i8, ptr %3, i64 8, !dbg !6388
  store i64 0, ptr %4, align 8, !dbg !6388
  call void @_ZN4core9panicking9panic_fmt17h23b950b84eaab9d4E(ptr align 8 %_2, ptr align 8 @alloc_2c71a29473aff77c92ade7c1b012bb96) #21, !dbg !6389
  unreachable, !dbg !6389
}

; Function Attrs: cold noinline noreturn nounwind nonlazybind
declare void @_ZN4core6option13unwrap_failed17h0f3641bcb4b94e3eE(ptr align 8) unnamed_addr #7

; Function Attrs: alwaysinline nounwind nonlazybind
define internal fastcc { i64, i64 } @_ZN5alloc4sync32arcinner_layout_for_value_layout17h115005fbd3436af7E(i64 %layout.0, i64 %layout.1) unnamed_addr #3 !dbg !6390 {
start:
  %_11 = alloca [8 x i8], align 8
  %_6 = alloca [16 x i8], align 8
  %_4 = alloca [24 x i8], align 8
  %_3 = alloca [24 x i8], align 8
  call void @llvm.dbg.declare(metadata ptr poison, metadata !6395, metadata !DIExpression()), !dbg !6409
  call void @llvm.dbg.declare(metadata ptr poison, metadata !6408, metadata !DIExpression()), !dbg !6411
  call void @llvm.dbg.declare(metadata ptr poison, metadata !6412, metadata !DIExpression()), !dbg !6420
  call void @llvm.dbg.declare(metadata ptr poison, metadata !6416, metadata !DIExpression()), !dbg !6422
  call void @llvm.dbg.declare(metadata ptr poison, metadata !6423, metadata !DIExpression()), !dbg !6429
  call void @llvm.dbg.declare(metadata ptr poison, metadata !6431, metadata !DIExpression()), !dbg !6442
  call void @llvm.dbg.declare(metadata ptr poison, metadata !6438, metadata !DIExpression()), !dbg !6469
  call void @llvm.dbg.declare(metadata ptr poison, metadata !6394, metadata !DIExpression()), !dbg !6471
  store i64 8, ptr %_6, align 8, !dbg !6472
  %0 = getelementptr inbounds i8, ptr %_6, i64 8, !dbg !6472
  store i64 16, ptr %0, align 8, !dbg !6472
  call fastcc void @_ZN4core5alloc6layout6Layout6extend17hc67bfec9b3d90516E(ptr noalias align 8 %_4, ptr align 8 %_6, i64 8, i64 40) #20, !dbg !6410
  call fastcc void @"_ZN4core6result19Result$LT$T$C$E$GT$6unwrap17h82b5759c6603cf11E"(ptr noalias align 8 %_3, ptr align 8 %_4) #20, !dbg !6410
  call void @llvm.dbg.declare(metadata ptr poison, metadata !6463, metadata !DIExpression()), !dbg !6473
  call void @llvm.dbg.declare(metadata ptr poison, metadata !6474, metadata !DIExpression()), !dbg !6480
  call void @llvm.dbg.declare(metadata ptr poison, metadata !6451, metadata !DIExpression()), !dbg !6482
  call void @llvm.dbg.declare(metadata ptr poison, metadata !6483, metadata !DIExpression()), !dbg !6489
  call void @llvm.dbg.declare(metadata ptr poison, metadata !6487, metadata !DIExpression()), !dbg !6491
  call void @llvm.dbg.declare(metadata ptr poison, metadata !6478, metadata !DIExpression()), !dbg !6493
  %self = load i64, ptr %_3, align 8, !dbg !6495
  call void @llvm.dbg.declare(metadata ptr poison, metadata !6496, metadata !DIExpression()), !dbg !6502
  call void @llvm.dbg.declare(metadata ptr poison, metadata !6500, metadata !DIExpression()), !dbg !6504
  store i64 %self, ptr %_11, align 8, !dbg !6506
  %_12 = load i64, ptr %_11, align 8, !dbg !6506
  %_13 = icmp uge i64 %_12, 1, !dbg !6506
  %_14 = icmp ule i64 %_12, -9223372036854775808, !dbg !6506
  call void @llvm.dbg.declare(metadata ptr poison, metadata !6452, metadata !DIExpression()), !dbg !6507
  call void @llvm.dbg.declare(metadata ptr poison, metadata !6508, metadata !DIExpression()), !dbg !6513
  call void @llvm.dbg.declare(metadata ptr poison, metadata !6436, metadata !DIExpression()), !dbg !6515
  call void @llvm.dbg.declare(metadata ptr poison, metadata !6419, metadata !DIExpression()), !dbg !6516
  call void @llvm.dbg.declare(metadata ptr poison, metadata !6427, metadata !DIExpression()), !dbg !6518
  %1 = getelementptr inbounds i8, ptr %_3, i64 8, !dbg !6520
  %len = load i64, ptr %1, align 8, !dbg !6520
  call void @llvm.dbg.declare(metadata ptr poison, metadata !6453, metadata !DIExpression()), !dbg !6521
  call void @llvm.dbg.declare(metadata ptr poison, metadata !6512, metadata !DIExpression()), !dbg !6522
  call void @llvm.dbg.declare(metadata ptr poison, metadata !6441, metadata !DIExpression()), !dbg !6523
  %self7 = add i64 %len, %_12, !dbg !6525
  call void @llvm.dbg.declare(metadata ptr poison, metadata !6435, metadata !DIExpression()), !dbg !6526
  %_18 = sub i64 %self7, 1, !dbg !6527
  %_21 = sub i64 %_12, 1, !dbg !6528
  %_20 = xor i64 %_21, -1, !dbg !6529
  %len_rounded_up = and i64 %_18, %_20, !dbg !6530
  call void @llvm.dbg.declare(metadata ptr poison, metadata !6454, metadata !DIExpression()), !dbg !6531
  call void @llvm.dbg.declare(metadata ptr poison, metadata !6439, metadata !DIExpression()), !dbg !6532
  %pad = sub i64 %len_rounded_up, %len, !dbg !6533
  call void @llvm.dbg.declare(metadata ptr poison, metadata !6464, metadata !DIExpression()), !dbg !6534
  %new_size = add i64 %pad, %len, !dbg !6535
  call void @llvm.dbg.declare(metadata ptr poison, metadata !6466, metadata !DIExpression()), !dbg !6536
  call void @llvm.dbg.declare(metadata ptr poison, metadata !6417, metadata !DIExpression()), !dbg !6537
  %2 = insertvalue { i64, i64 } poison, i64 %_12, 0, !dbg !6538
  %3 = insertvalue { i64, i64 } %2, i64 %new_size, 1, !dbg !6538
  ret { i64, i64 } %3, !dbg !6538
}

; Function Attrs: inlinehint nounwind nonlazybind
define internal fastcc { ptr, i64 } @"_ZN5alloc4sync12Arc$LT$T$GT$10new_uninit28_$u7b$$u7b$closure$u7d$$u7d$17ha0152e432a6f0421E"(i64 %layout.0, i64 %layout.1) unnamed_addr #5 !dbg !6539 {
start:
  call void @llvm.dbg.declare(metadata ptr poison, metadata !6545, metadata !DIExpression()), !dbg !6552
  call void @llvm.dbg.declare(metadata ptr poison, metadata !6544, metadata !DIExpression()), !dbg !6554
  call void @llvm.dbg.declare(metadata ptr poison, metadata !6543, metadata !DIExpression()), !dbg !6555
  call void @llvm.dbg.declare(metadata ptr poison, metadata !6551, metadata !DIExpression()), !dbg !6556
  %0 = call fastcc { ptr, i64 } @_ZN5alloc5alloc6Global10alloc_impl17h83197ba763cfaed1E(i64 %layout.0, i64 %layout.1, i1 zeroext false) #20, !dbg !6557
  %_0.0 = extractvalue { ptr, i64 } %0, 0, !dbg !6557
  %_0.1 = extractvalue { ptr, i64 } %0, 1, !dbg !6557
  %1 = insertvalue { ptr, i64 } poison, ptr %_0.0, 0, !dbg !6558
  %2 = insertvalue { ptr, i64 } %1, i64 %_0.1, 1, !dbg !6558
  ret { ptr, i64 } %2, !dbg !6558
}

; Function Attrs: inlinehint nounwind nonlazybind
define internal fastcc ptr @_ZN4core3ops8function6FnOnce9call_once17hfdc50960d4aac1e2E(ptr %0) unnamed_addr #5 !dbg !6559 {
start:
  %_2 = alloca [8 x i8], align 8
  store ptr %0, ptr %_2, align 8
  call void @llvm.dbg.declare(metadata ptr poison, metadata !6566, metadata !DIExpression()), !dbg !6574
  call void @llvm.dbg.declare(metadata ptr %_2, metadata !6567, metadata !DIExpression()), !dbg !6574
  %1 = load ptr, ptr %_2, align 8, !dbg !6574
  %_0 = call fastcc ptr @"_ZN4core3ptr7mut_ptr31_$LT$impl$u20$$BP$mut$u20$T$GT$4cast17h1aa58888c860d484E"(ptr %1) #20, !dbg !6574
  ret ptr %_0, !dbg !6574
}

; Function Attrs: noreturn nounwind nonlazybind
declare void @__rust_alloc_error_handler(i64, i64) unnamed_addr #13

; Function Attrs: alwaysinline nounwind nonlazybind
define internal fastcc ptr @"_ZN4core3ptr7mut_ptr31_$LT$impl$u20$$BP$mut$u20$T$GT$4cast17h1aa58888c860d484E"(ptr %self) unnamed_addr #3 !dbg !6575 {
start:
  call void @llvm.dbg.declare(metadata ptr poison, metadata !6577, metadata !DIExpression()), !dbg !6580
  ret ptr %self, !dbg !6581
}

; Function Attrs: inlinehint nounwind nonlazybind
define internal fastcc { ptr, i64 } @_ZN5alloc5alloc6Global10alloc_impl17h83197ba763cfaed1E(i64 %0, i64 %1, i1 zeroext %zeroed) unnamed_addr #5 !dbg !6582 {
start:
  %_48 = alloca [8 x i8], align 8
  %ptr = alloca [16 x i8], align 8
  %_21 = alloca [8 x i8], align 8
  %self7 = alloca [8 x i8], align 8
  %self6 = alloca [8 x i8], align 8
  %_12 = alloca [8 x i8], align 8
  %raw_ptr = alloca [8 x i8], align 8
  %_0 = alloca [16 x i8], align 8
  %layout = alloca [16 x i8], align 8
  call void @llvm.dbg.declare(metadata ptr poison, metadata !6596, metadata !DIExpression()), !dbg !6613
  call void @llvm.dbg.declare(metadata ptr poison, metadata !6614, metadata !DIExpression()), !dbg !6625
